Archive member included to satisfy reference by file (symbol)

c:/program files/microchip/xc32/v4.30/bin/bin/../../lib/gcc/pic32c/8.3.1/../../../../pic32c/lib/thumb/v7e-m+fp/hard\libpic32c.a(data_init.o)
                              build/default/production/_ext/1171490990/startup_xc32.o (__pic32c_data_initialization)
c:/program files/microchip/xc32/v4.30/bin/bin/../../lib/gcc/pic32c/8.3.1/../../../../pic32c/lib/thumb/v7e-m+fp/hard\libc-musl.a(__libc_start_main.o)
                              build/default/production/_ext/1171490990/startup_xc32.o (__libc_init_array)
c:/program files/microchip/xc32/v4.30/bin/bin/../../lib/gcc/pic32c/8.3.1/../../../../pic32c/lib/thumb/v7e-m+fp/hard\libc-musl.a(libc.o)
                              c:/program files/microchip/xc32/v4.30/bin/bin/../../lib/gcc/pic32c/8.3.1/../../../../pic32c/lib/thumb/v7e-m+fp/hard\libc-musl.a(__libc_start_main.o) (__progname_full)
c:/program files/microchip/xc32/v4.30/bin/bin/../../lib/gcc/pic32c/8.3.1/../../../../pic32c/lib/thumb/v7e-m+fp/hard\libc-musl.a(malloc.o)
                              build/default/production/pdu_packet.o (free)
c:/program files/microchip/xc32/v4.30/bin/bin/../../lib/gcc/pic32c/8.3.1/../../../../pic32c/lib/thumb/v7e-m+fp/hard\libc-musl.a(expand_heap.o)
                              c:/program files/microchip/xc32/v4.30/bin/bin/../../lib/gcc/pic32c/8.3.1/../../../../pic32c/lib/thumb/v7e-m+fp/hard\libc-musl.a(malloc.o) (__expand_heap)
c:/program files/microchip/xc32/v4.30/bin/bin/../../lib/gcc/pic32c/8.3.1/../../../../pic32c/lib/thumb/v7e-m+fp/hard\libc-musl.a(stdin.o)
                              build/default/production/_ext/1171490990/initialization.o (_stdin)
c:/program files/microchip/xc32/v4.30/bin/bin/../../lib/gcc/pic32c/8.3.1/../../../../pic32c/lib/thumb/v7e-m+fp/hard\libc-musl.a(stdout.o)
                              build/default/production/_ext/1171490990/initialization.o (_stdout)
c:/program files/microchip/xc32/v4.30/bin/bin/../../lib/gcc/pic32c/8.3.1/../../../../pic32c/lib/thumb/v7e-m+fp/hard\libc-musl.a(setbuf.o)
                              build/default/production/_ext/1171490990/initialization.o (setbuf)
c:/program files/microchip/xc32/v4.30/bin/bin/../../lib/gcc/pic32c/8.3.1/../../../../pic32c/lib/thumb/v7e-m+fp/hard\libc-musl.a(memcmp.o)
                              build/default/production/_ext/411819097/ff.o (memcmp)
c:/program files/microchip/xc32/v4.30/bin/bin/../../lib/gcc/pic32c/8.3.1/../../../../pic32c/lib/thumb/v7e-m+fp/hard\libc-musl.a(memcpy.o)
                              build/default/production/_ext/1593096446/plib_nvmctrl.o (memcpy)
c:/program files/microchip/xc32/v4.30/bin/bin/../../lib/gcc/pic32c/8.3.1/../../../../pic32c/lib/thumb/v7e-m+fp/hard\libc-musl.a(memset.o)
                              build/default/production/_ext/404212886/stream_buffer.o (memset)
c:/program files/microchip/xc32/v4.30/bin/bin/../../lib/gcc/pic32c/8.3.1/../../../../pic32c/lib/thumb/v7e-m+fp/hard\libc-musl.a(strlen.o)
                              build/default/production/_ext/1269487135/sys_fs.o (strlen)
c:/program files/microchip/xc32/v4.30/bin/bin/../../lib/gcc/pic32c/8.3.1/../../../../pic32c/lib/thumb/v7e-m+fp/hard\libc-musl.a(strchr.o)
                              build/default/production/_ext/411819097/ff.o (strchr)
c:/program files/microchip/xc32/v4.30/bin/bin/../../lib/gcc/pic32c/8.3.1/../../../../pic32c/lib/thumb/v7e-m+fp/hard\libc-musl.a(strchrnul.o)
                              c:/program files/microchip/xc32/v4.30/bin/bin/../../lib/gcc/pic32c/8.3.1/../../../../pic32c/lib/thumb/v7e-m+fp/hard\libc-musl.a(strchr.o) (__strchrnul)
c:/program files/microchip/xc32/v4.30/bin/bin/../../lib/gcc/pic32c/8.3.1/../../../../pic32c/lib/thumb/v7e-m+fp/hard\libc-musl.a(strcmp.o)
                              build/default/production/_ext/1269487135/sys_fs_media_manager.o (strcmp)
c:/program files/microchip/xc32/v4.30/bin/bin/../../lib/gcc/pic32c/8.3.1/../../../../pic32c/lib/thumb/v7e-m+fp/hard\libc-musl.a(strcpy.o)
                              build/default/production/_ext/1269487135/sys_fs.o (strcpy)
c:/program files/microchip/xc32/v4.30/bin/bin/../../lib/gcc/pic32c/8.3.1/../../../../pic32c/lib/thumb/v7e-m+fp/hard\libc-musl.a(strncmp.o)
                              build/default/production/_ext/1269487135/sys_fs.o (strncmp)
c:/program files/microchip/xc32/v4.30/bin/bin/../../lib/gcc/pic32c/8.3.1/../../../../pic32c/lib/thumb/v7e-m+fp/hard\libc-musl.a(__environ.o)
                              c:/program files/microchip/xc32/v4.30/bin/bin/../../lib/gcc/pic32c/8.3.1/../../../../pic32c/lib/thumb/v7e-m+fp/hard\libc-musl.a(__libc_start_main.o) (__environ)
c:/program files/microchip/xc32/v4.30/bin/bin/../../lib/gcc/pic32c/8.3.1/../../../../pic32c/lib/thumb/v7e-m+fp/hard\libc-musl.a(__errno_location.o)
                              c:/program files/microchip/xc32/v4.30/bin/bin/../../lib/gcc/pic32c/8.3.1/../../../../pic32c/lib/thumb/v7e-m+fp/hard\libc-musl.a(malloc.o) (__errno_val)
c:/program files/microchip/xc32/v4.30/bin/bin/../../lib/gcc/pic32c/8.3.1/../../../../pic32c/lib/thumb/v7e-m+fp/hard\libc-musl.a(__io_init_needed.o)
                              c:/program files/microchip/xc32/v4.30/bin/bin/../../lib/gcc/pic32c/8.3.1/../../../../pic32c/lib/thumb/v7e-m+fp/hard\libc-musl.a(stdout.o) (__io_init_needed)
c:/program files/microchip/xc32/v4.30/bin/bin/../../lib/gcc/pic32c/8.3.1/../../../../pic32c/lib/thumb/v7e-m+fp/hard\libc-musl.a(__io_rw_needed.o)
                              c:/program files/microchip/xc32/v4.30/bin/bin/../../lib/gcc/pic32c/8.3.1/../../../../pic32c/lib/thumb/v7e-m+fp/hard\libc-musl.a(stdin.o) (__io_rw_needed)
c:/program files/microchip/xc32/v4.30/bin/bin/../../lib/gcc/pic32c/8.3.1/../../../../pic32c/lib/thumb/v7e-m+fp/hard\libc-musl.a(__stdio_read.o)
                              c:/program files/microchip/xc32/v4.30/bin/bin/../../lib/gcc/pic32c/8.3.1/../../../../pic32c/lib/thumb/v7e-m+fp/hard\libc-musl.a(stdin.o) (__stdio_read)
c:/program files/microchip/xc32/v4.30/bin/bin/../../lib/gcc/pic32c/8.3.1/../../../../pic32c/lib/thumb/v7e-m+fp/hard\libc-musl.a(__towrite_rw.o)
                              c:/program files/microchip/xc32/v4.30/bin/bin/../../lib/gcc/pic32c/8.3.1/../../../../pic32c/lib/thumb/v7e-m+fp/hard\libc-musl.a(__io_rw_needed.o) (__towrite_rw_needed)
c:/program files/microchip/xc32/v4.30/bin/bin/../../lib/gcc/pic32c/8.3.1/../../../../pic32c/lib/thumb/v7e-m+fp/hard\libc-musl.a(setvbuf.o)
                              c:/program files/microchip/xc32/v4.30/bin/bin/../../lib/gcc/pic32c/8.3.1/../../../../pic32c/lib/thumb/v7e-m+fp/hard\libc-musl.a(setbuf.o) (setvbuf)
c:/program files/microchip/xc32/v4.30/bin/bin/../../lib/gcc/pic32c/8.3.1/../../../../pic32c/lib/thumb/v7e-m+fp/hard\libc-musl.a(stpcpy.o)
                              c:/program files/microchip/xc32/v4.30/bin/bin/../../lib/gcc/pic32c/8.3.1/../../../../pic32c/lib/thumb/v7e-m+fp/hard\libc-musl.a(strcpy.o) (__stpcpy)
c:/program files/microchip/xc32/v4.30/bin/bin/../../lib/gcc/pic32c/8.3.1/../../../../pic32c/lib/thumb/v7e-m+fp/hard\libc-musl.a(readv.o)
                              c:/program files/microchip/xc32/v4.30/bin/bin/../../lib/gcc/pic32c/8.3.1/../../../../pic32c/lib/thumb/v7e-m+fp/hard\libc-musl.a(__stdio_read.o) (readv)
c:/program files/microchip/xc32/v4.30/bin/bin/../../lib/gcc/pic32c/8.3.1/../../../../pic32c/lib/thumb/v7e-m+fp/hard\libc-musl.a(__fopen_rw.o)
                              c:/program files/microchip/xc32/v4.30/bin/bin/../../lib/gcc/pic32c/8.3.1/../../../../pic32c/lib/thumb/v7e-m+fp/hard\libc-musl.a(__io_rw_needed.o) (__fopen_rw_needed)
c:/program files/microchip/xc32/v4.30/bin/bin/../../lib/gcc/pic32c/8.3.1/../../../../pic32c/lib/thumb/v7e-m+fp/hard\libc-musl.a(__ftello_rw.o)
                              c:/program files/microchip/xc32/v4.30/bin/bin/../../lib/gcc/pic32c/8.3.1/../../../../pic32c/lib/thumb/v7e-m+fp/hard\libc-musl.a(__io_rw_needed.o) (__ftello_adj_rw_needed)
c:/program files/microchip/xc32/v4.30/bin/bin/../../lib/gcc/pic32c/8.3.1/../../../../pic32c/lib/thumb/v7e-m+fp/hard\libc-musl.a(__init_stdio.o)
                              c:/program files/microchip/xc32/v4.30/bin/bin/../../lib/gcc/pic32c/8.3.1/../../../../pic32c/lib/thumb/v7e-m+fp/hard\libc-musl.a(__io_init_needed.o) (__init_stdio_needed)
c:/program files/microchip/xc32/v4.30/bin/bin/../../lib/gcc/pic32c/8.3.1/../../../../pic32c/lib/thumb/v7e-m+fp/hard\libc-musl.a(__io_buf_needed.o)
                              c:/program files/microchip/xc32/v4.30/bin/bin/../../lib/gcc/pic32c/8.3.1/../../../../pic32c/lib/thumb/v7e-m+fp/hard\libc-musl.a(__io_rw_needed.o) (__io_buf_needed)
c:/program files/microchip/xc32/v4.30/bin/bin/../../lib/gcc/pic32c/8.3.1/../../../../pic32c/lib/thumb/v7e-m+fp/hard\libc-musl.a(__io_file_needed.o)
                              c:/program files/microchip/xc32/v4.30/bin/bin/../../lib/gcc/pic32c/8.3.1/../../../../pic32c/lib/thumb/v7e-m+fp/hard\libc-musl.a(__io_init_needed.o) (__io_file_needed)
c:/program files/microchip/xc32/v4.30/bin/bin/../../lib/gcc/pic32c/8.3.1/../../../../pic32c/lib/thumb/v7e-m+fp/hard\libc-musl.a(__io_std_needed.o)
                              c:/program files/microchip/xc32/v4.30/bin/bin/../../lib/gcc/pic32c/8.3.1/../../../../pic32c/lib/thumb/v7e-m+fp/hard\libc-musl.a(__io_buf_needed.o) (__io_std_needed)
c:/program files/microchip/xc32/v4.30/bin/bin/../../lib/gcc/pic32c/8.3.1/../../../../pic32c/lib/thumb/v7e-m+fp/hard\libc-musl.a(__out.o)
                              c:/program files/microchip/xc32/v4.30/bin/bin/../../lib/gcc/pic32c/8.3.1/../../../../pic32c/lib/thumb/v7e-m+fp/hard\libc-musl.a(__fopen_rw.o) (__stdio_write_unbuffered)
c:/program files/microchip/xc32/v4.30/bin/bin/../../lib/gcc/pic32c/8.3.1/../../../../pic32c/lib/thumb/v7e-m+fp/hard\libc-musl.a(__putc.o)
                              c:/program files/microchip/xc32/v4.30/bin/bin/../../lib/gcc/pic32c/8.3.1/../../../../pic32c/lib/thumb/v7e-m+fp/hard\libc-musl.a(__io_buf_needed.o) (__putc_needed)
c:/program files/microchip/xc32/v4.30/bin/bin/../../lib/gcc/pic32c/8.3.1/../../../../pic32c/lib/thumb/v7e-m+fp/hard\libc-musl.a(__stderr.o)
                              c:/program files/microchip/xc32/v4.30/bin/bin/../../lib/gcc/pic32c/8.3.1/../../../../pic32c/lib/thumb/v7e-m+fp/hard\libc-musl.a(__io_std_needed.o) (__init_stderr_needed)
c:/program files/microchip/xc32/v4.30/bin/bin/../../lib/gcc/pic32c/8.3.1/../../../../pic32c/lib/thumb/v7e-m+fp/hard\libc-musl.a(__stdio_close.o)
                              c:/program files/microchip/xc32/v4.30/bin/bin/../../lib/gcc/pic32c/8.3.1/../../../../pic32c/lib/thumb/v7e-m+fp/hard\libc-musl.a(__fopen_rw.o) (__stdio_close_rw)
c:/program files/microchip/xc32/v4.30/bin/bin/../../lib/gcc/pic32c/8.3.1/../../../../pic32c/lib/thumb/v7e-m+fp/hard\libc-musl.a(__stdio_exit.o)
                              c:/program files/microchip/xc32/v4.30/bin/bin/../../lib/gcc/pic32c/8.3.1/../../../../pic32c/lib/thumb/v7e-m+fp/hard\libc-musl.a(__io_buf_needed.o) (__stdio_exit_needed)
c:/program files/microchip/xc32/v4.30/bin/bin/../../lib/gcc/pic32c/8.3.1/../../../../pic32c/lib/thumb/v7e-m+fp/hard\libc-musl.a(__stdio_write.o)
                              c:/program files/microchip/xc32/v4.30/bin/bin/../../lib/gcc/pic32c/8.3.1/../../../../pic32c/lib/thumb/v7e-m+fp/hard\libc-musl.a(setvbuf.o) (__stdio_write_buffered)
c:/program files/microchip/xc32/v4.30/bin/bin/../../lib/gcc/pic32c/8.3.1/../../../../pic32c/lib/thumb/v7e-m+fp/hard\libc-musl.a(__stdout.o)
                              c:/program files/microchip/xc32/v4.30/bin/bin/../../lib/gcc/pic32c/8.3.1/../../../../pic32c/lib/thumb/v7e-m+fp/hard\libc-musl.a(__io_std_needed.o) (__init_stdout_needed)
c:/program files/microchip/xc32/v4.30/bin/bin/../../lib/gcc/pic32c/8.3.1/../../../../pic32c/lib/thumb/v7e-m+fp/hard\libc-musl.a(__towrite.o)
                              c:/program files/microchip/xc32/v4.30/bin/bin/../../lib/gcc/pic32c/8.3.1/../../../../pic32c/lib/thumb/v7e-m+fp/hard\libc-musl.a(__stdio_write.o) (__towrite)
c:/program files/microchip/xc32/v4.30/bin/bin/../../lib/gcc/pic32c/8.3.1/../../../../pic32c/lib/thumb/v7e-m+fp/hard\libc-musl.a(putc.o)
                              c:/program files/microchip/xc32/v4.30/bin/bin/../../lib/gcc/pic32c/8.3.1/../../../../pic32c/lib/thumb/v7e-m+fp/hard\libc-musl.a(__putc.o) (__putc_unbuffered)
c:/program files/microchip/xc32/v4.30/bin/bin/../../lib/gcc/pic32c/8.3.1/../../../../pic32c/lib/thumb/v7e-m+fp/hard\libc-musl.a(writev.o)
                              c:/program files/microchip/xc32/v4.30/bin/bin/../../lib/gcc/pic32c/8.3.1/../../../../pic32c/lib/thumb/v7e-m+fp/hard\libc-musl.a(__stdio_write.o) (writev)
c:/program files/microchip/xc32/v4.30/bin/bin/../../lib/gcc/pic32c/8.3.1/../../../../pic32c/lib/thumb/v7e-m+fp/hard\libc-musl.a(__overflow.o)
                              c:/program files/microchip/xc32/v4.30/bin/bin/../../lib/gcc/pic32c/8.3.1/../../../../pic32c/lib/thumb/v7e-m+fp/hard\libc-musl.a(__putc.o) (__overflow)
c:/program files/microchip/xc32/v4.30/bin/bin/../../lib/gcc/pic32c/8.3.1/../../../../pic32c/lib/thumb/v7e-m+fp/hard\libc-musl.a(__fclose.o)
                              c:/program files/microchip/xc32/v4.30/bin/bin/../../lib/gcc/pic32c/8.3.1/../../../../pic32c/lib/thumb/v7e-m+fp/hard\libc-musl.a(__io_buf_needed.o) (__fclose_needed)
c:/program files/microchip/xc32/v4.30/bin/bin/../../lib/gcc/pic32c/8.3.1/../../../../pic32c/lib/thumb/v7e-m+fp/hard\libc-musl.a(__fopen.o)
                              c:/program files/microchip/xc32/v4.30/bin/bin/../../lib/gcc/pic32c/8.3.1/../../../../pic32c/lib/thumb/v7e-m+fp/hard\libc-musl.a(__io_std_needed.o) (__fopen_needed)
c:/program files/microchip/xc32/v4.30/bin/bin/../../lib/gcc/pic32c/8.3.1/../../../../pic32c/lib/thumb/v7e-m+fp/hard\libc-musl.a(__fseeko.o)
                              c:/program files/microchip/xc32/v4.30/bin/bin/../../lib/gcc/pic32c/8.3.1/../../../../pic32c/lib/thumb/v7e-m+fp/hard\libc-musl.a(__io_buf_needed.o) (__fseeko_needed)
c:/program files/microchip/xc32/v4.30/bin/bin/../../lib/gcc/pic32c/8.3.1/../../../../pic32c/lib/thumb/v7e-m+fp/hard\libc-musl.a(__ftello.o)
                              c:/program files/microchip/xc32/v4.30/bin/bin/../../lib/gcc/pic32c/8.3.1/../../../../pic32c/lib/thumb/v7e-m+fp/hard\libc-musl.a(__io_buf_needed.o) (__ftello_adj_needed)
c:/program files/microchip/xc32/v4.30/bin/bin/../../lib/gcc/pic32c/8.3.1/../../../../pic32c/lib/thumb/v7e-m+fp/hard\libc-musl.a(__fwrite.o)
                              c:/program files/microchip/xc32/v4.30/bin/bin/../../lib/gcc/pic32c/8.3.1/../../../../pic32c/lib/thumb/v7e-m+fp/hard\libc-musl.a(__io_std_needed.o) (__fwrite_needed)
c:/program files/microchip/xc32/v4.30/bin/bin/../../lib/gcc/pic32c/8.3.1/thumb/v7e-m+fp/hard\libgcc.a(_aeabi_uldivmod.o)
                              build/default/production/_ext/504274921/plib_sercom3_usart.o (__aeabi_uldivmod)
c:/program files/microchip/xc32/v4.30/bin/bin/../../lib/gcc/pic32c/8.3.1/thumb/v7e-m+fp/hard\libgcc.a(_udivmoddi4.o)
                              c:/program files/microchip/xc32/v4.30/bin/bin/../../lib/gcc/pic32c/8.3.1/thumb/v7e-m+fp/hard\libgcc.a(_aeabi_uldivmod.o) (__udivmoddi4)
c:/program files/microchip/xc32/v4.30/bin/bin/../../lib/gcc/pic32c/8.3.1/thumb/v7e-m+fp/hard\libgcc.a(_dvmd_tls.o)
                              c:/program files/microchip/xc32/v4.30/bin/bin/../../lib/gcc/pic32c/8.3.1/thumb/v7e-m+fp/hard\libgcc.a(_aeabi_uldivmod.o) (__aeabi_ldiv0)
c:/program files/microchip/xc32/v4.30/bin/bin/../../lib/gcc/pic32c/8.3.1/../../../../pic32c/lib/thumb/v7e-m+fp/hard\libpic32c.a(close.o)
                              c:/program files/microchip/xc32/v4.30/bin/bin/../../lib/gcc/pic32c/8.3.1/../../../../pic32c/lib/thumb/v7e-m+fp/hard\libc-musl.a(__stdio_close.o) (close)
c:/program files/microchip/xc32/v4.30/bin/bin/../../lib/gcc/pic32c/8.3.1/../../../../pic32c/lib/thumb/v7e-m+fp/hard\libpic32c.a(lseek.o)
                              c:/program files/microchip/xc32/v4.30/bin/bin/../../lib/gcc/pic32c/8.3.1/../../../../pic32c/lib/thumb/v7e-m+fp/hard\libc-musl.a(__stdio_close.o) (lseek)
c:/program files/microchip/xc32/v4.30/bin/bin/../../lib/gcc/pic32c/8.3.1/../../../../pic32c/lib/thumb/v7e-m+fp/hard\libpic32c.a(sbrk.o)
                              c:/program files/microchip/xc32/v4.30/bin/bin/../../lib/gcc/pic32c/8.3.1/../../../../pic32c/lib/thumb/v7e-m+fp/hard\libc-musl.a(expand_heap.o) (_sbrk)
c:/program files/microchip/xc32/v4.30/bin/bin/../../lib/gcc/pic32c/8.3.1/../../../../pic32c/lib/thumb/v7e-m+fp/hard\libpic32c.a(pic32_data_init_clear.o)
                              (__dinit_clear_needed)
c:/program files/microchip/xc32/v4.30/bin/bin/../../lib/gcc/pic32c/8.3.1/../../../../pic32c/lib/thumb/v7e-m+fp/hard\libpic32c.a(pic32_data_init_copy.o)
                              (__dinit_copy_needed)

Microchip PIC32 Memory-Usage Report

ROM Program-Memory Usage
section                    address  length [bytes]      (dec)  Description
-------                 ----------  -------------------------  -----------
.vectors                         0          0x260         608   
.text                        0x260           0x20          32  App's exec code 
.ARM.exidx                   0x280            0x8           8   
.text.f_mkfs                 0x288          0x7f0        2032   
.text.decode_pdu_packet      0xa78          0x6fc        1788   
.text.DRV_SDSPI_Tasks       0x1174          0x6a0        1696   
.dinit                      0x1814          0x3fc        1020   
.text.SYS_FS_MEDIA_MANA     0x1e64          0x3f8        1016   
.text.follow_path           0x225c          0x39c         924   
.text.mount_volume          0x25f8          0x398         920   
.text.f_printf              0x2990          0x350         848   
.text.lDRV_SDSPI_SetupX     0x2ce0          0x338         824   
.text                       0x3018          0x2bc         700  App's exec code 
.text.dir_register          0x32d4          0x2b0         688   
.text.f_open                0x3584          0x268         616   
.text.xTaskCreate           0x37ec          0x1f4         500   
.rodata.cvt1.8196           0x39e0          0x1f4         500   
.text.f_write               0x3bd4          0x1c6         454   
.text.EVSYS_Initialize      0x3d9a            0x2           2   
.text.dir_find              0x3d9c          0x1c4         452   
.text.malloc                0x3f60          0x1a4         420   
.text.f_read                0x4104          0x198         408   
.text.xTaskIncrementTic     0x429c          0x194         404   
.text.f_lseek               0x4430          0x192         402   
.text.NonMaskableInt_Ha     0x45c2            0x2           2   
.text.create_partition      0x45c4          0x188         392   
.text.SYS_FS_MEDIA_MANA     0x474c          0x188         392   
.text.DRV_SPI_WriteRead     0x48d4          0x188         392   
.text.f_setlabel            0x4a5c          0x17c         380   
.text.SERCOM2_SPI_Write     0x4bd8          0x17c         380   
.text.xTaskResumeAll        0x4d54          0x170         368   
.text.get_fileinfo          0x4ec4          0x168         360   
.text.lDRV_SDSPI_Comman     0x502c          0x164         356   
.text.f_rename              0x5190          0x160         352   
.text.SERCOM2_SPI_Inter     0x52f0          0x158         344   
.text.xQueueSemaphoreTa     0x5448          0x154         340   
.text.dir_read              0x559c          0x138         312   
.text.f_getcwd              0x56d4          0x138         312   
.text.f_mkdir               0x580c          0x138         312   
.text.put_fat               0x5944          0x12c         300   
.text.xQueueGenericSend     0x5a70          0x124         292   
.text.PORT_Initialize       0x5b94          0x120         288   
.text.create_chain          0x5cb4          0x11e         286   
.text.HardFault_Handler     0x5dd2            0x2           2   
.text.check_fs              0x5dd4          0x10c         268   
.text.CLOCK_Initialize      0x5ee0          0x104         260   
.rodata.uc437               0x5fe4          0x100         256   
.text.DRV_SDSPI_Initial     0x60e4           0xfc         252   
.text.free                  0x61e0           0xf8         248   
.text.DRV_SPI_Open          0x62d8           0xec         236   
.text.DRV_SDSPI_Open        0x63c4           0xe8         232   
.text.f_getfree             0x64ac           0xda         218   
.text.DebugMonitor_Hand     0x6586            0x2           2   
.text.xTaskRemoveFromEv     0x6588           0xd8         216   
.text.get_fat               0x6660           0xd0         208   
.text.f_unlink              0x6730           0xcc         204   
.text.dir_next              0x67fc           0xc8         200   
.text.xTaskPriorityInhe     0x68c4           0xc4         196   
.text.f_truncate            0x6988           0xc2         194   
.text.MemoryManagement_     0x6a4a            0x2           2   
.text.SYS_TIME_PLIBCall     0x6a4c           0xc0         192   
.rodata.cvt2.8197           0x6b0c           0xbc         188   
.text.DRV_SPI_Initializ     0x6bc8           0xb4         180   
.text.ff_wtoupper           0x6c7c           0xb4         180   
.text.prvAddCurrentTask     0x6d30           0xb0         176   
.text.dir_sdi               0x6de0           0xb0         176   
.text.SYS_TIME_TimerObj     0x6e90           0xb0         176   
.text.vTaskSwitchContex     0x6f40           0xa8         168   
.text.NVIC_Initialize       0x6fe8           0xa4         164   
.text.enableAllGPIOs        0x708c           0xa4         164   
.text.disableAllGPIOs       0x7130           0xa4         164   
.text.f_getlabel            0x71d4           0xa2         162   
.text.BusFault_Handler      0x7276            0x2           2   
.text.SERCOM4_I2C_Inter     0x7278           0xa0         160   
.rodata.gDrvSDSPICmdTab     0x7318           0xa0         160   
.text.vTaskPriorityDisi     0x73b8           0x9c         156   
.text.FATFS_unmount         0x7454           0x9c         156   
.text.SERCOM2_SPI_Trans     0x74f0           0x9c         156   
.text.f_sync                0x758c           0x9a         154   
.text.remove_chain          0x7626           0x94         148   
.text.f_opendir             0x76ba           0x92         146   
.text.lDRV_SDSPI_ReadRe     0x774c           0x92         146   
.text.UsageFault_Handle     0x77de            0x2           2   
.text.xQueueGenericRese     0x77e0           0x90         144   
.text.xTaskPriorityDisi     0x7870           0x8c         140   
.text.sync_fs               0x78fc           0x8c         140   
.text.__write_buffered      0x7988           0x8a         138   
.text.Dummy_Handler         0x7a12            0x2           2   
.text.SYS_Initialize        0x7a14           0x88         136   
.rodata.FatFsFunctions      0x7a9c           0x88         136   
.text.Reset_Handler         0x7b24           0x88         136   
.text.pvPortMalloc          0x7bac           0x88         136   
.text.SYS_TIME_AddToLis     0x7c34           0x84         132   
.text.DRV_SPI_Lock          0x7cb8           0x84         132   
.rodata.ExCvt               0x7d3c           0x80         128   
.text.prvUnlockQueue        0x7dbc           0x7e         126   
.text.Dummy_App_Func        0x7e3a            0x2           2   
.text.FATFS_mount           0x7e3c           0x7c         124   
.text.SYS_TIME_Initiali     0x7eb8           0x78         120   
.text.prvCopyDataToQueu     0x7f30           0x76         118   
.text.__stdio_write_buf     0x7fa6           0x76         118   
.text.f_mount               0x801c           0x74         116   
.text.xQueueGiveFromISR     0x8090           0x72         114   
.text.vPortFree             0x8102            0x2           2   
.text.prvIdleTask           0x8104           0x70         112   
.text.inc_share             0x8174           0x70         112   
.text.SYS_FS_Initialize     0x81e4           0x70         112   
.text.vTaskStartSchedul     0x8254           0x6c         108   
.text.xPortPendSVHandle     0x82c0           0x64         100   
.text.SYS_Tasks             0x8324           0x64         100   
.text.xTaskCheckForTime     0x8388           0x60          96   
.text.f_chdir               0x83e8           0x60          96   
.text.__strchrnul           0x8448           0x60          96   
.text.__stdio_read          0x84a8           0x60          96   
.text.SERCOM4_I2C_Initi     0x8508           0x5c          92   
.text.chk_share             0x8564           0x5c          92   
.text.get_ldnumber          0x85c0           0x5c          92   
.text.dir_clear             0x861c           0x5c          92   
.text.dir_remove            0x8678           0x5c          92   
.text.f_chmod               0x86d4           0x5c          92   
.text.USART_READ            0x8730           0x5c          92   
.text.__libc_start_init     0x878c           0x5c          92   
.text.unbin                 0x87e8           0x5c          92   
.rodata                     0x8844           0x5c          92  Read-only const 
.text.__stdio_close_rw      0x88a0           0x5c          92   
.text.f_utime               0x88fc           0x5a          90   
.text.f_gets                0x8956           0x5a          90   
.text.OSAL_SEM_Create       0x89b0           0x58          88   
.text.lDRV_SPI_PlibCall     0x8a08           0x58          88   
.text.FATFS_open            0x8a60           0x54          84   
.text.dir_alloc             0x8ab4           0x54          84   
.rodata                     0x8b08           0x54          84  Read-only const 
.text.SYS_TIME_Callback     0x8b5c           0x54          84   
.text.SYS_FS_MEDIA_MANA     0x8bb0           0x54          84   
.text.SERCOM3_USART_Rea     0x8c04           0x50          80   
.text.RTC_Initialize        0x8c54           0x50          80   
.text.SYS_TIME_RemoveFr     0x8ca4           0x50          80   
.text.f_readdir             0x8cf4           0x4e          78   
.text.__dummy               0x8d42            0x2           2   
.text.DRV_SDSPI_Close       0x8d44           0x4c          76   
.text.lDRV_SPI_DriverHa     0x8d90           0x4c          76   
.text.__pic32c_data_ini     0x8ddc           0x4c          76   
.text.setvbuf               0x8e28           0x4c          76   
.text.xQueueGenericCrea     0x8e74           0x4a          74   
.text.__dummy               0x8ebe            0x2           2   
.text.xPortStartSchedul     0x8ec0           0x48          72   
.text.sync_window           0x8f08           0x48          72   
.text.lDRV_SDSPI_Driver     0x8f50           0x48          72   
.text.ff_uni2oem            0x8f98           0x48          72   
.text.validate              0x8fe0           0x46          70   
.text.__dummy               0x9026            0x2           2   
.text.SERCOM3_USART_Wri     0x9028           0x44          68   
.text.f_stat                0x906c           0x44          68   
.text.SYS_TIME_TimerSta     0x90b0           0x44          68   
.text.SYS_INT_SourceDis     0x90f4           0x44          68   
.text                       0x9138           0x40          64  App's exec code 
.text.disk_checkCommand     0x9178           0x40          64   
.text.SYS_FS_MEDIA_MANA     0x91b8           0x40          64   
.text.adjust_size           0x91f8           0x40          64   
.text.FATFS_getclusters     0x9238           0x3e          62   
.text.putc_bfd              0x9276           0x3e          62   
.text.move_window           0x92b4           0x3c          60   
.text.SYS_TIME_GetTimer     0x92f0           0x3c          60   
.text.SYS_TIME_Resource     0x932c           0x3c          60   
.text.SYS_TIME_TimerDes     0x9368           0x3c          60   
.text.OSAL_SEM_PostISR      0x93a4           0x3c          60   
.text.SERCOM2_SPI_Initi     0x93e0           0x3c          60   
.text.putc_flush            0x941c           0x3a          58   
.text.disk_ioctl            0x9456           0x3a          58   
.text.bin_index             0x9490           0x38          56   
.text.vTaskDelay            0x94c8           0x34          52   
.text.vListInsert           0x94fc           0x34          52   
.text.SERCOM3_USART_Ini     0x9530           0x34          52   
.text.f_close               0x9564           0x34          52   
.text.f_fdisk               0x9598           0x34          52   
.text.DRV_SDSPI_Command     0x95cc           0x34          52   
.text.DRV_SDSPI_SPIWrit     0x9600           0x34          52   
.text.trim                  0x9634           0x32          50   
.text.SERCOM3_USART_Err     0x9668           0x30          48   
.rodata.sdspiMediaFunct     0x9698           0x30          48   
.text.dec_share             0x96c8           0x30          48   
.text.f_puts                0x96f8           0x30          48   
.text.disk_write            0x9728           0x30          48   
.text.SYS_FS_MEDIA_MANA     0x9758           0x30          48   
.text.alloc_rev             0x9788           0x30          48   
.text                       0x97b8           0x30          48  App's exec code 
.text.pxPortInitialiseS     0x97e8           0x2c          44   
.text.xPortSysTickHandl     0x9814           0x2c          44   
.text.FATFS_opendir         0x9840           0x2c          44   
.text.RTC_InterruptHand     0x986c           0x2c          44   
.text.disk_read             0x9898           0x2c          44   
.rodata                     0x98c4           0x2c          44  Read-only const 
.text.ff_oem2uni            0x98f0           0x2c          44   
.text.alloc_fwd             0x991c           0x2c          44   
.text._sbrk                 0x9948           0x2c          44   
.text.f_closedir            0x9974           0x2a          42   
.text.__readv               0x999e           0x2a          42   
.text.__writev              0x99c8           0x2a          42   
.rodata.drvSPI0remapDat     0x99f4           0x28          40   
.text.prvPortStartFirst     0x9a1c           0x28          40   
.text.vPortSetupTimerIn     0x9a44           0x28          40   
.text.prvResetNextTaskU     0x9a6c           0x28          40   
.text.FATFS_mkfs            0x9a94           0x28          40   
.text.tchar2uni             0x9abc           0x28          40   
.text.SYS_TIME_Resource     0x9ae4           0x28          40   
.text.DRV_SDSPI_IsAttac     0x9b0c           0x28          40   
.text.DRV_SPI_TransferS     0x9b34           0x28          40   
.text.__towrite_rw          0x9b5c           0x28          40   
.text.xQueueCreateCount     0x9b84           0x26          38   
.text.f_putc                0x9baa           0x26          38   
.text.get_fattime           0x9bd0           0x26          38   
.text.DRV_SDSPI_SPISpee     0x9bf6           0x26          38   
.text.PORT_GroupRead        0x9c1c            0x4           4   
.text.vPortSVCHandler       0x9c20           0x24          36   
.text.xQueueCreateMutex     0x9c44           0x24          36   
.text.uxListRemove          0x9c68           0x24          36   
.text.f_chdrive             0x9c8c           0x24          36   
.text.DRV_SDSPI_CardDet     0x9cb0           0x24          36   
.text.DRV_SDSPI_CmdResp     0x9cd4           0x24          36   
.text.DRV_SDSPI_TimerSt     0x9cf8           0x24          36   
.rodata                     0x9d1c           0x24          36  Read-only const 
.text.FATFS_chdrive         0x9d40           0x22          34   
.text.SYS_FS_MEDIA_MANA     0x9d62           0x22          34   
.rodata.drvSDSPI0InitDa     0x9d84           0x20          32   
.text.prvTaskExitError      0x9da4           0x20          32   
.text.vPortEnterCritica     0x9dc4           0x20          32   
.text.ld_clust              0x9de4           0x20          32   
.text.diskEventHandler      0x9e04           0x20          32   
.text.SYS_FS_MEDIA_MANA     0x9e24           0x20          32   
.rodata                     0x9e44           0x20          32  Read-only const 
.text.DRV_SDSPI_Geometr     0x9e64           0x20          32   
.text.SYS_INT_SourceRes     0x9e84           0x20          32   
.text.WDT_Enable            0x9ea4           0x20          32   
.text.lock_bin              0x9ec4           0x20          32   
.text.read                  0x9ee4           0x1e          30   
.text.FATFS_close           0x9f02           0x1e          30   
.text.FATFS_closedir        0x9f20           0x1e          30   
.text.sum_sfn               0x9f3e           0x1e          30   
.text.OSAL_SEM_Pend         0x9f5c           0x1e          30   
.text.OSAL_MUTEX_Lock       0x9f7a           0x1e          30   
.text.__dinit_copy          0x9f98           0x1e          30   
.text.write                 0x9fb6           0x1c          28   
.text.vTaskPlaceOnEvent     0x9fd4           0x1c          28   
.text.pvTaskIncrementMu     0x9ff0           0x1c          28   
.text.SERCOM3_USART_Err     0xa00c           0x1c          28   
.text.RTC_Timer32Stop       0xa028           0x1c          28   
.text.SYS_FS_MEDIA_MANA     0xa044           0x1c          28   
.text.lDRV_SDSPI_EnterI     0xa060           0x1c          28   
.text.memcmp                0xa07c           0x1c          28   
.text.FATFS_readdir         0xa098           0x1a          26   
.text.st_clust              0xa0b2           0x1a          26   
.text.APP_Initialize        0xa0cc           0x1a          26   
.rodata.drvSPI0InitData     0xa0e8           0x18          24   
.text.vTaskInternalSetT     0xa100           0x18          24   
.text.FATFS_stat            0xa118           0x18          24   
.text.RTC_Timer32Start      0xa130           0x18          24   
.text.lDRV_SDSPI_0_Task     0xa148           0x18          24   
.text.SYS_FS_MEDIA_T_MA     0xa160           0x18          24   
.text.OSAL_MUTEX_Create     0xa178           0x18          24   
.text.OSAL_MUTEX_Unlock     0xa190           0x18          24   
.text.WDT_TimeoutPeriod     0xa1a8           0x18          24   
.text.WDT_Clear             0xa1c0           0x18          24   
.text.__towrite             0xa1d8           0x18          24   
.text.prvIsQueueEmpty       0xa1f0           0x16          22   
.text.vListInitialise       0xa206           0x16          22   
.text.ld_dword              0xa21c           0x16          22   
.text.clst2sect             0xa232           0x16          22   
.text.DRV_SDSPI_Read        0xa248           0x16          22   
.text.DRV_SDSPI_Write       0xa25e           0x16          22   
.text.DRV_SDSPI_CmdResp     0xa274           0x16          22   
.text.DRV_SDSPI_TimerSt     0xa28a           0x16          22   
.text.DRV_SPI_ReadTrans     0xa2a0           0x16          22   
.text.__expand_heap         0xa2b6           0x16          22   
.rodata.sysTimePlibAPI      0xa2cc           0x14          20   
.text.vPortEnableVFP        0xa2e0           0x14          20   
.text.vPortExitCritical     0xa2f4           0x14          20   
.text.DRV_SDSPI_Registe     0xa308           0x14          20   
.rodata.badchr.8997         0xa31c           0x14          20   
.rodata.gSYSFSVolumeNam     0xa330           0x14          20   
.text.SERCOM2_SPI_IsTra     0xa344           0x14          20   
.rodata                     0xa358           0x14          20  Read-only const 
.text.__init_stdout         0xa36c           0x14          20   
.text.strchr                0xa380           0x14          20   
.text.NVIC_INT_Disable      0xa394           0x12          18   
.text.NVIC_INT_Restore      0xa3a6           0x12          18   
.text.vApplicationStack     0xa3b8           0x12          18   
.text.vApplicationMallo     0xa3ca           0x12          18   
.text.DRV_SDSPI_EventHa     0xa3dc           0x12          18   
.text.DRV_SPI_WriteTran     0xa3ee           0x12          18   
.text.memcpy                0xa400           0x12          18   
.text.__dinit_clear         0xa412           0x12          18   
.text.NVMCTRL_Initializ     0xa424           0x10          16   
.rodata.drvSPI0PlibAPI      0xa434           0x10          16   
.text.vTaskSuspendAll       0xa444           0x10          16   
.text.SERCOM3_USART_Rec     0xa454           0x10          16   
.text.st_dword              0xa464           0x10          16   
.rodata.LfnOfs              0xa474           0x10          16   
.rodata.cst.9034            0xa484           0x10          16   
.rodata.cst32.9035          0xa494           0x10          16   
.rodata.defopt.9036         0xa4a4           0x10          16   
.text.disk_initialize       0xa4b4           0x10          16   
.text.lSYS_FS_Tasks         0xa4c4           0x10          16   
.text.setbuf                0xa4d4           0x10          16   
.text.memset                0xa4e4           0x10          16   
.text.strlen                0xa4f4           0x10          16   
.text.__init_stdio          0xa504           0x10          16   
.text.main                  0xa514            0xe          14   
.text.FATFS_eof             0xa522            0xe          14   
.text.uxTaskGetNumberOf     0xa530            0xc          12   
.text.vTaskMissedYield      0xa53c            0xc          12   
.text.SERCOM4_I2C_Trans     0xa548            0xc          12   
.text.SERCOM4_I2C_LastB     0xa554            0xc          12   
.text.FATFS_error           0xa560            0xc          12   
.text.RTC_Timer32Callba     0xa56c            0xc          12   
.text.SYS_FS_MEDIA_MANA     0xa578            0xc          12   
.text.DRV_SDSPI_SPIBloc     0xa584            0xc          12   
.text.DRV_SDSPI_SPIBloc     0xa590            0xc          12   
.text.SERCOM2_SPI_Callb     0xa59c            0xc          12   
.text.FATFS_read            0xa5a8            0xa          10   
.text.FATFS_lseek           0xa5b2            0xa          10   
.text.FATFS_gets            0xa5bc            0xa          10   
.text.FATFS_write           0xa5c6            0xa          10   
.text.FATFS_truncate        0xa5d0            0xa          10   
.text.FATFS_sync            0xa5da            0xa          10   
.text.FATFS_putc            0xa5e4            0xa          10   
.text.FATFS_puts            0xa5ee            0xa          10   
.text.FATFS_printf          0xa5f8            0xa          10   
.text.DRV_SDSPI_SPIWrit     0xa602            0xa          10   
.text.DRV_SDSPI_SPIRead     0xa60c            0xa          10   
.text.DRV_SDSPI_SPIExcl     0xa616            0xa          10   
.rodata.drvSPI0remapClo     0xa620            0x8           8   
.rodata.drvSPI0remapClo     0xa628            0x8           8   
.rodata.sysFSInit           0xa630            0x8           8   
.rodata.sysTimeInitData     0xa638            0x8           8   
.rodata                     0xa640            0x8           8  Read-only const 
.text.FATFS_getlabel        0xa648            0x8           8   
.text.FATFS_getcwd          0xa650            0x8           8   
.text.FATFS_chdir           0xa658            0x8           8   
.text.FATFS_mkdir           0xa660            0x8           8   
.text.FATFS_unlink          0xa668            0x8           8   
.text.FATFS_setlabel        0xa670            0x8           8   
.text.FATFS_chmod           0xa678            0x8           8   
.text.FATFS_utime           0xa680            0x8           8   
.text.FATFS_rename          0xa688            0x8           8   
.text.FATFS_fdisk           0xa690            0x8           8   
.text.SYS_FS_Tasks          0xa698            0x8           8   
.text.lAPP_Tasks            0xa6a0            0x8           8   
.rodata.gPartitionTypeO     0xa6a8            0x8           8   
.text.APP_Tasks             0xa6b0            0x8           8   
.text.__get_stdout          0xa6b8            0x8           8   
.text.vListInitialiseIt     0xa6c0            0x6           6   
.text.RTC_Timer32Freque     0xa6c6            0x6           6   
.text.DRV_SDSPI_TimerCa     0xa6cc            0x6           6   
.text.__fwrite_min          0xa6d2            0x6           6   
.text.close                 0xa6d8            0x6           6   
.text.PORT_GroupSet         0xa6de            0x4           4   
.text.PORT_GroupClear       0xa6e2            0x4           4   
.text.FATFS_tell            0xa6e6            0x4           4   
.text.FATFS_size            0xa6ea            0x4           4   
.text.disk_status           0xa6ee            0x4           4   
.rodata                     0xa6f4            0x4           4  Read-only const 
.text.__dummy_decompres     0xa6f8            0x4           4   
.text.__dummy               0xa6fc            0x4           4   
.text                       0xa700            0x4           4  App's exec code 
.text.lseek                 0xa704            0x4           4   
      Total ROM used  :      0xa4aa       42154  8.0% of 0x80000
        --------------------------------------------------------------------------
         Total Program Memory used  :      0xa4aa       42154  8.0% of 0x80000
        --------------------------------------------------------------------------


RAM Data-Memory Usage
section                    address  length [bytes]      (dec)  Description
-------                 ----------  -------------------------  -----------
.bss.ucHeap             0x20000000         0xa000       40960   
.bss                    0x2000a000          0x408        1032  Uninitialized data 
.bss.gSYSFSObj          0x2000a408            0x8           8   
.bss.FATFSVolume        0x2000a410          0x250         592   
.bss.FATFSFileObject    0x2000a660          0x240         576   
.bss                    0x2000a8a0          0x20c         524  Uninitialized data 
.bss.LfnBuf             0x2000aaac          0x200         512   
.bss.pucAlignedHeap.618 0x2000acac            0x4           4   
.bss.gSYSFSMediaBlockBu 0x2000acb0          0x200         512   
.bss.gSYSFSMediaBuffer  0x2000aeb0          0x200         512   
.bss.gSYSFSFileObj      0x2000b0b0          0x110         272   
.bss.receiveBuffer      0x2000b1c0          0x100         256   
.bss.gDrvSDSPIObj       0x2000b2c0           0xe0         224   
.bss.timers             0x2000b3a0           0xa0         160   
.bss.pxReadyTasksLists  0x2000b440           0x64         100   
.bss                    0x2000b4a4           0x50          80  Uninitialized data 
.bss.gDrvSPIObj         0x2000b4f4           0x48          72   
.bss.xNextFreeByte      0x2000b53c            0x4           4   
.bss.FATFSDirObject     0x2000b540           0x38          56   
.bss.gSystemCounterObj  0x2000b578           0x30          48   
.bss.sercom2SPIObj      0x2000b5a8           0x2c          44   
.bss.gSYSFSMediaObject  0x2000b5d4           0x28          40   
.bss.drvSPI0ClientObjPo 0x2000b5fc           0x24          36   
.bss                    0x2000b620           0x1c          28  Uninitialized data 
.bss.gSYSFSVolumeObject 0x2000b63c           0x1c          28   
.bss.xDelayedTaskList1  0x2000b658           0x14          20   
.bss.xDelayedTaskList2  0x2000b66c           0x14          20   
.bss.xPendingReadyList  0x2000b680           0x14          20   
.bss.xSuspendedTaskList 0x2000b694           0x14          20   
.bss.xTasksWaitingTermi 0x2000b6a8           0x14          20   
.bss.gSYSFSMountPoint   0x2000b6bc           0x14          20   
.bss.drvSDSPI0ClientObj 0x2000b6d0           0x10          16   
.bss.Files              0x2000b6e0           0x10          16   
.bss.gSYSFSDirObj       0x2000b6f0           0x10          16   
.bss.gSysFsDiskData     0x2000b700            0x8           8   
.bss.sysObj             0x2000b708            0xc          12   
.bss.sysfsMountTable    0x2000b714            0xc          12   
.bss.sercom4I2CSObj     0x2000b720            0xc          12   
.bss.rtcObj             0x2000b72c            0xc          12   
.bss                    0x2000b738            0x8           8  Uninitialized data 
.bss.pxCurrentTCB       0x2000b740            0x4           4   
.bss.pxDelayedTaskList  0x2000b744            0x4           4   
.bss.pxOverflowDelayedT 0x2000b748            0x4           4   
.bss.uxCurrentNumberOfT 0x2000b74c            0x4           4   
.bss.uxDeletedTasksWait 0x2000b750            0x4           4   
.bss.uxSchedulerSuspend 0x2000b754            0x4           4   
.bss.uxTaskNumber       0x2000b758            0x4           4   
.bss.uxTopReadyPriority 0x2000b75c            0x4           4   
.bss.xIdleTaskHandle    0x2000b760            0x4           4   
.bss.xNextTaskUnblockTi 0x2000b764            0x4           4   
.bss.xNumOfOverflows    0x2000b768            0x4           4   
.bss.xPendedTicks       0x2000b76c            0x4           4   
.bss.xSchedulerRunning  0x2000b770            0x4           4   
.bss.xTickCount         0x2000b774            0x4           4   
.bss.xYieldPending      0x2000b778            0x4           4   
.bss.FatFs              0x2000b77c            0x4           4   
.bss.gSysFsMutex        0x2000b780            0x4           4   
.bss.xAPP_Tasks         0x2000b784            0x4           4   
.bss.data               0x2000b788            0x4           4   
.bss                    0x2000b78c            0x4           4  Uninitialized data 
.bss                    0x2000b790            0x4           4  Uninitialized data 
.bss                    0x2000b794            0x4           4  Uninitialized data 
.bss                    0x2000b798            0x4           4  Uninitialized data 
.bss.VolToPart          0x2000b79c            0x2           2   
.bss.Fsid               0x2000b79e            0x2           2   
.bss.rxCounter          0x2000b7a0            0x2           2   
.bss.startupflag        0x2000b7a2            0x1           1   
.bss.CurrVol            0x2000b7a3            0x1           1   
.bss.isLastByteTransfer 0x2000b7a4            0x1           1   
.bss.isExclusiveUseMute 0x2000b7a5            0x1           1   
.data.gSysTimeTokenCoun 0x2000b7a6            0x2           2   
.data                   0x2000b7a8           0x6c         108  Initialized data 
.data                   0x2000b814           0x60          96  Initialized data 
.data                   0x2000b874           0x20          32  Initialized data 
.data.gSYSFSMediaManage 0x2000b894           0x18          24   
.data.uxCriticalNesting 0x2000b8ac            0x4           4   
.data.uxTopUsedPriority 0x2000b8b0            0x4           4   
         Total RAM used  :      0xb8b4       47284  24.0% of 0x30000
        --------------------------------------------------------------------------
            Total Data Memory used  :      0xb8b4       47284  24.0% of 0x30000
        --------------------------------------------------------------------------


Dynamic Data-Memory Reservation
section                    address  length [bytes]      (dec)  Description
-------                 ----------  -------------------------  -----------
heap                    0x2000b8b8          0x200         512  Reserved for heap 
stack                   0x2000bad0        0x24520      148768  Reserved for stack 

        --------------------------------------------------------------------------

Microchip PIC32 Memory-Usage Report By Module

        text        data         bss         dec         hex    basename                        filename
--------------------------------------------------------------------------------
         138           0       40968       41106        a092    heap_1.o                    build/default/production/_ext/1665200909/heap_1.o
       15284           0         535       15819        3dcb    ff.o                        build/default/production/_ext/411819097/ff.o
        4028           0         224        4252        109c    drv_sdspi.o                 build/default/production/_ext/1100529066/drv_sdspi.o
        2860           4         260        3124         c34    FreeRTOS_tasks.o            build/default/production/_ext/404212886/FreeRTOS_tasks.o
        1794          24        1094        2912         b60    sys_fs_media_manager.o      build/default/production/_ext/1269487135/sys_fs_media_manager.o
         858           0        1225        2083         823    sys_fs_fat_interface.o      build/default/production/_ext/1269487135/sys_fs_fat_interface.o
        1792           0           0        1792         700    pdu_packet.o                build/default/production/pdu_packet.o
        1146           0         524        1670         686    malloc.o                    libc-musl.a
        1304           0           0        1304         518    queue.o                     build/default/production/_ext/404212886/queue.o
        1072           2         208        1282         502    sys_time.o                  build/default/production/_ext/101884895/sys_time.o
        1184           0          73        1257         4e9    drv_spi.o                   build/default/production/_ext/2070931557/drv_spi.o
        1240           0           0        1240         4d8    ffunicode.o                 build/default/production/_ext/411819097/ffunicode.o
           4         108        1032        1144         478    stdin.o                     libc-musl.a
        1020           0           0        1020         3fc    data_init                   data_init
         972           0          45        1017         3f9    plib_sercom2_spi_master.o   build/default/production/_ext/17022449/plib_sercom2_spi_master.o
         490           0         262         752         2f0    app.o                       build/default/production/_ext/1360937237/app.o
         708           0           0         708         2c4    _udivmoddi4.o               libgcc.a
         610           0           0         610         262    interrupts.o                build/default/production/_ext/1171490990/interrupts.o
         448           0          76         524         20c    initialization.o            build/default/production/_ext/1171490990/initialization.o
         480           4           0         484         1e4    port.o                      build/default/production/_ext/246609638/port.o
         120           0         320         440         1b8    sys_fs.o                    build/default/production/_ext/1269487135/sys_fs.o
         304           0           8         312         138    diskio.o                    build/default/production/_ext/565198302/diskio.o
         302           0           0         302         12e    drv_sdspi_driver_interface.obuild/default/production/_ext/1100529066/drv_sdspi_driver_interface.o
         300           0           0         300         12c    plib_port.o                 build/default/production/_ext/1865521619/plib_port.o
         292           0           0         292         124    plib_sercom3_usart.o        build/default/production/_ext/504274921/plib_sercom3_usart.o
         276           0          12         288         120    plib_sercom4_i2c_slave.o    build/default/production/_ext/714983638/plib_sercom4_i2c_slave.o
         260           0           0         260         104    plib_clock.o                build/default/production/_ext/1984496892/plib_clock.o
         256           0           0         256         100    __stdio_write.o             libc-musl.a
         256           0           0         256         100    osal_freertos.o             build/default/production/_ext/1529399856/osal_freertos.o
         194           0          12         206          ce    plib_rtc_timer.o            build/default/production/_ext/60180175/plib_rtc_timer.o
         200           0           0         200          c8    plib_nvic.o                 build/default/production/_ext/1865468468/plib_nvic.o
         192           0           4         196          c4    tasks.o                     build/default/production/_ext/1171490990/tasks.o
         138           0           0         138          8a    startup_xc32.o              build/default/production/_ext/1171490990/startup_xc32.o
         116           0           0         116          74    list.o                      build/default/production/_ext/404212886/list.o
           8          96           0         104          68    __stdout.o                  libc-musl.a
         100           0           4         104          68    data_init.o                 libpic32c.a
          72           0          28         100          64    crtbegin.o                  c:/program files/microchip/xc32/v4.30/bin/bin/../../lib/gcc/pic32c/8.3.1/thumb/v7e-m+fp/hard/crtbegin.o
         100           0           0         100          64    sys_int.o                   build/default/production/_ext/1881668453/sys_int.o
          96           0           0          96          60    __stdio_read.o              libc-musl.a
          96           0           0          96          60    strchrnul.o                 libc-musl.a
          94           0           0          94          5e    __libc_start_main.o         libc-musl.a
          92           0           0          92          5c    __stdio_close.o             libc-musl.a
           0           0          80          80          50    libc.o                      libc-musl.a
          80           0           0          80          50    plib_wdt.o                  build/default/production/_ext/60184501/plib_wdt.o
          76           0           0          76          4c    setvbuf.o                   libc-musl.a
          68           0           0          68          44    drv_sdspi_file_system.o     build/default/production/_ext/1100529066/drv_sdspi_file_system.o
          20          32           8          60          3c    stdout.o                    libc-musl.a
          58           0           0          58          3a    xc32_monitor.o              build/default/production/_ext/163028504/xc32_monitor.o
          48           0           0          48          30    _aeabi_uldivmod.o           libgcc.a
          44           0           4          48          30    sbrk.o                      libpic32c.a
          42           0           0          42          2a    readv.o                     libc-musl.a
          42           0           0          42          2a    writev.o                    libc-musl.a
          40           0           0          40          28    __towrite_rw.o              libc-musl.a
          36           0           0          36          24    freertos_hooks.o            build/default/production/_ext/1171490990/freertos_hooks.o
          30           0           0          30          1e    pic32_data_init_copy.o      libpic32c.a
          28           0           0          28          1c    memcmp.o                    libc-musl.a
          24           0           0          24          18    __towrite.o                 libc-musl.a
          22           0           0          22          16    expand_heap.o               libc-musl.a
          20           0           0          20          14    strchr.o                    libc-musl.a
          18           0           0          18          12    __init_stdio.o              libc-musl.a
          18           0           0          18          12    memcpy.o                    libc-musl.a
          18           0           0          18          12    pic32_data_init_clear.o     libpic32c.a
          16           0           0          16          10    strlen.o                    libc-musl.a
          16           0           0          16          10    crtn.o                      c:/program files/microchip/xc32/v4.30/bin/bin/../../lib/gcc/pic32c/8.3.1/thumb/v7e-m+fp/hard/crtn.o
          16           0           0          16          10    plib_nvmctrl.o              build/default/production/_ext/1593096446/plib_nvmctrl.o
          16           0           0          16          10    memset.o                    libc-musl.a
          16           0           0          16          10    setbuf.o                    libc-musl.a
          14           0           0          14           e    main.o                      build/default/production/_ext/1360937237/main.o
          12           0           0          12           c    exceptions.o                build/default/production/_ext/1171490990/exceptions.o
           8           0           0           8           8    crti.o                      c:/program files/microchip/xc32/v4.30/bin/bin/../../lib/gcc/pic32c/8.3.1/thumb/v7e-m+fp/hard/crti.o
           6           0           0           6           6    close.o                     libpic32c.a
           6           0           0           6           6    __out.o                     libc-musl.a
           4           0           0           4           4    lseek.o                     libpic32c.a
           4           0           0           4           4    _dvmd_tls.o                 libgcc.a
           0           0           4           4           4    __environ.o                 libc-musl.a
           0           0           4           4           4    __errno_location.o          libc-musl.a
           2           0           0           2           2    __stderr.o                  libc-musl.a
           2           0           0           2           2    plib_evsys.o                build/default/production/_ext/1986646378/plib_evsys.o
--------------------------------------------------------------------------------
       42166         270       47014       89450       15d6a    dist/default/production/Artemis-PDU.X.production.elf


Discarded input sections

 .text          0x00000000        0x0 c:/program files/microchip/xc32/v4.30/bin/bin/../../lib/gcc/pic32c/8.3.1/thumb/v7e-m+fp/hard/crti.o
 .data          0x00000000        0x0 c:/program files/microchip/xc32/v4.30/bin/bin/../../lib/gcc/pic32c/8.3.1/thumb/v7e-m+fp/hard/crti.o
 .bss           0x00000000        0x0 c:/program files/microchip/xc32/v4.30/bin/bin/../../lib/gcc/pic32c/8.3.1/thumb/v7e-m+fp/hard/crti.o
 .xc_stack_usage.hdr
                0x00000000        0xe c:/program files/microchip/xc32/v4.30/bin/bin/../../lib/gcc/pic32c/8.3.1/thumb/v7e-m+fp/hard/crti.o
 .xc_stack_usage
                0x00000000       0x26 c:/program files/microchip/xc32/v4.30/bin/bin/../../lib/gcc/pic32c/8.3.1/thumb/v7e-m+fp/hard/crti.o
 .data          0x00000000        0x4 c:/program files/microchip/xc32/v4.30/bin/bin/../../lib/gcc/pic32c/8.3.1/thumb/v7e-m+fp/hard/crtbegin.o
 .xc_stack_usage
                0x00000000       0x3c c:/program files/microchip/xc32/v4.30/bin/bin/../../lib/gcc/pic32c/8.3.1/thumb/v7e-m+fp/hard/crtbegin.o
 .xc_stack_usage.hdr
                0x00000000        0xe c:/program files/microchip/xc32/v4.30/bin/bin/../../lib/gcc/pic32c/8.3.1/thumb/v7e-m+fp/hard/crtbegin.o
 .text          0x00000000        0x0 build/default/production/_ext/1984496892/plib_clock.o
 .data          0x00000000        0x0 build/default/production/_ext/1984496892/plib_clock.o
 .bss           0x00000000        0x0 build/default/production/_ext/1984496892/plib_clock.o
 .text          0x00000000        0x0 build/default/production/_ext/1865131932/plib_cmcc.o
 .data          0x00000000        0x0 build/default/production/_ext/1865131932/plib_cmcc.o
 .bss           0x00000000        0x0 build/default/production/_ext/1865131932/plib_cmcc.o
 .text.CMCC_Disable
                0x00000000       0x18 build/default/production/_ext/1865131932/plib_cmcc.o
 .text.CMCC_EnableICache
                0x00000000       0x28 build/default/production/_ext/1865131932/plib_cmcc.o
 .text.CMCC_DisableICache
                0x00000000       0x28 build/default/production/_ext/1865131932/plib_cmcc.o
 .text.CMCC_EnableDCache
                0x00000000       0x28 build/default/production/_ext/1865131932/plib_cmcc.o
 .text.CMCC_DisableDCache
                0x00000000       0x28 build/default/production/_ext/1865131932/plib_cmcc.o
 .text.CMCC_InvalidateAll
                0x00000000       0x20 build/default/production/_ext/1865131932/plib_cmcc.o
 .debug_info    0x00000000      0x52c build/default/production/_ext/1865131932/plib_cmcc.o
 .debug_abbrev  0x00000000       0x99 build/default/production/_ext/1865131932/plib_cmcc.o
 .debug_aranges
                0x00000000       0x48 build/default/production/_ext/1865131932/plib_cmcc.o
 .debug_ranges  0x00000000       0x38 build/default/production/_ext/1865131932/plib_cmcc.o
 .debug_line    0x00000000      0x207 build/default/production/_ext/1865131932/plib_cmcc.o
 .debug_str     0x00000000        0x0 build/default/production/_ext/1865131932/plib_cmcc.o
 .comment       0x00000000       0x2c build/default/production/_ext/1865131932/plib_cmcc.o
 .debug_frame   0x00000000       0x70 build/default/production/_ext/1865131932/plib_cmcc.o
 .ARM.attributes
                0x00000000       0x34 build/default/production/_ext/1865131932/plib_cmcc.o
 .text          0x00000000        0x0 build/default/production/_ext/1986646378/plib_evsys.o
 .data          0x00000000        0x0 build/default/production/_ext/1986646378/plib_evsys.o
 .bss           0x00000000        0x0 build/default/production/_ext/1986646378/plib_evsys.o
 .text          0x00000000        0x0 build/default/production/_ext/1865468468/plib_nvic.o
 .data          0x00000000        0x0 build/default/production/_ext/1865468468/plib_nvic.o
 .bss           0x00000000        0x0 build/default/production/_ext/1865468468/plib_nvic.o
 .text.NVIC_INT_Enable
                0x00000000        0x8 build/default/production/_ext/1865468468/plib_nvic.o
 .text          0x00000000        0x0 build/default/production/_ext/1593096446/plib_nvmctrl.o
 .data          0x00000000        0x0 build/default/production/_ext/1593096446/plib_nvmctrl.o
 .bss           0x00000000        0x0 build/default/production/_ext/1593096446/plib_nvmctrl.o
 .text.NVMCTRL_Read
                0x00000000       0x10 build/default/production/_ext/1593096446/plib_nvmctrl.o
 .text.NVMCTRL_SetWriteMode
                0x00000000       0x14 build/default/production/_ext/1593096446/plib_nvmctrl.o
 .text.NVMCTRL_QuadWordWrite
                0x00000000       0x4c build/default/production/_ext/1593096446/plib_nvmctrl.o
 .text.NVMCTRL_DoubleWordWrite
                0x00000000       0x40 build/default/production/_ext/1593096446/plib_nvmctrl.o
 .text.NVMCTRL_PageBufferWrite
                0x00000000       0x2c build/default/production/_ext/1593096446/plib_nvmctrl.o
 .text.NVMCTRL_PageBufferCommit
                0x00000000       0x28 build/default/production/_ext/1593096446/plib_nvmctrl.o
 .text.NVMCTRL_PageWrite
                0x00000000       0x40 build/default/production/_ext/1593096446/plib_nvmctrl.o
 .text.NVMCTRL_BlockErase
                0x00000000       0x1c build/default/production/_ext/1593096446/plib_nvmctrl.o
 .text.NVMCTRL_USER_ROW_RowErase
                0x00000000       0x30 build/default/production/_ext/1593096446/plib_nvmctrl.o
 .text.NVMCTRL_ErrorGet
                0x00000000       0x20 build/default/production/_ext/1593096446/plib_nvmctrl.o
 .text.NVMCTRL_StatusGet
                0x00000000        0xc build/default/production/_ext/1593096446/plib_nvmctrl.o
 .text.NVMCTRL_IsBusy
                0x00000000       0x14 build/default/production/_ext/1593096446/plib_nvmctrl.o
 .text.NVMCTRL_USER_ROW_PageWrite
                0x00000000       0x6c build/default/production/_ext/1593096446/plib_nvmctrl.o
 .text.NVMCTRL_RegionLock
                0x00000000       0x10 build/default/production/_ext/1593096446/plib_nvmctrl.o
 .text.NVMCTRL_RegionUnlock
                0x00000000       0x10 build/default/production/_ext/1593096446/plib_nvmctrl.o
 .text.NVMCTRL_RegionLockStatusGet
                0x00000000        0xc build/default/production/_ext/1593096446/plib_nvmctrl.o
 .text.NVMCTRL_SecurityBitSet
                0x00000000       0x10 build/default/production/_ext/1593096446/plib_nvmctrl.o
 .text.NVMCTRL_SmartEEPROM_IsBusy
                0x00000000       0x10 build/default/production/_ext/1593096446/plib_nvmctrl.o
 .text.NVMCTRL_SmartEEPROMStatusGet
                0x00000000        0xc build/default/production/_ext/1593096446/plib_nvmctrl.o
 .text.NVMCTRL_SmartEEPROM_IsActiveSectorFull
                0x00000000       0x10 build/default/production/_ext/1593096446/plib_nvmctrl.o
 .text.NVMCTRL_BankSwap
                0x00000000       0x10 build/default/production/_ext/1593096446/plib_nvmctrl.o
 .text.NVMCTRL_SmartEEPROMSectorReallocate
                0x00000000       0x10 build/default/production/_ext/1593096446/plib_nvmctrl.o
 .text.NVMCTRL_SmartEEPROMFlushPageBuffer
                0x00000000       0x18 build/default/production/_ext/1593096446/plib_nvmctrl.o
 .bss.nvm_error
                0x00000000        0x2 build/default/production/_ext/1593096446/plib_nvmctrl.o
 .text          0x00000000        0x0 build/default/production/_ext/1865521619/plib_port.o
 .data          0x00000000        0x0 build/default/production/_ext/1865521619/plib_port.o
 .bss           0x00000000        0x0 build/default/production/_ext/1865521619/plib_port.o
 .text.PORT_GroupWrite
                0x00000000        0xc build/default/production/_ext/1865521619/plib_port.o
 .text.PORT_GroupLatchRead
                0x00000000        0x4 build/default/production/_ext/1865521619/plib_port.o
 .text.PORT_GroupToggle
                0x00000000        0x4 build/default/production/_ext/1865521619/plib_port.o
 .text.PORT_GroupInputEnable
                0x00000000        0x4 build/default/production/_ext/1865521619/plib_port.o
 .text.PORT_GroupOutputEnable
                0x00000000        0x4 build/default/production/_ext/1865521619/plib_port.o
 .text.PORT_PinPeripheralFunctionConfig
                0x00000000       0x4a build/default/production/_ext/1865521619/plib_port.o
 .text.PORT_PinGPIOConfig
                0x00000000       0x20 build/default/production/_ext/1865521619/plib_port.o
 .text          0x00000000        0x0 build/default/production/_ext/163028504/xc32_monitor.o
 .data          0x00000000        0x0 build/default/production/_ext/163028504/xc32_monitor.o
 .bss           0x00000000        0x0 build/default/production/_ext/163028504/xc32_monitor.o
 .text          0x00000000        0x0 build/default/production/_ext/1171490990/initialization.o
 .data          0x00000000        0x0 build/default/production/_ext/1171490990/initialization.o
 .bss           0x00000000        0x0 build/default/production/_ext/1171490990/initialization.o
 .text          0x00000000        0x0 build/default/production/_ext/1171490990/exceptions.o
 .data          0x00000000        0x0 build/default/production/_ext/1171490990/exceptions.o
 .bss           0x00000000        0x0 build/default/production/_ext/1171490990/exceptions.o
 .text          0x00000000        0x0 build/default/production/_ext/1171490990/interrupts.o
 .data          0x00000000        0x0 build/default/production/_ext/1171490990/interrupts.o
 .bss           0x00000000        0x0 build/default/production/_ext/1171490990/interrupts.o
 .text          0x00000000        0x0 build/default/production/_ext/1171490990/libc_syscalls.o
 .data          0x00000000        0x0 build/default/production/_ext/1171490990/libc_syscalls.o
 .bss           0x00000000        0x0 build/default/production/_ext/1171490990/libc_syscalls.o
 .text._exit    0x00000000        0x2 build/default/production/_ext/1171490990/libc_syscalls.o
 .debug_info    0x00000000      0x30a build/default/production/_ext/1171490990/libc_syscalls.o
 .debug_abbrev  0x00000000       0x52 build/default/production/_ext/1171490990/libc_syscalls.o
 .debug_loc     0x00000000       0x15 build/default/production/_ext/1171490990/libc_syscalls.o
 .debug_aranges
                0x00000000       0x20 build/default/production/_ext/1171490990/libc_syscalls.o
 .debug_ranges  0x00000000       0x10 build/default/production/_ext/1171490990/libc_syscalls.o
 .debug_line    0x00000000       0x5b build/default/production/_ext/1171490990/libc_syscalls.o
 .debug_str     0x00000000        0x0 build/default/production/_ext/1171490990/libc_syscalls.o
 .comment       0x00000000       0x2c build/default/production/_ext/1171490990/libc_syscalls.o
 .debug_frame   0x00000000       0x20 build/default/production/_ext/1171490990/libc_syscalls.o
 .ARM.attributes
                0x00000000       0x34 build/default/production/_ext/1171490990/libc_syscalls.o
 .text          0x00000000        0x0 build/default/production/_ext/1171490990/startup_xc32.o
 .data          0x00000000        0x0 build/default/production/_ext/1171490990/startup_xc32.o
 .bss           0x00000000        0x0 build/default/production/_ext/1171490990/startup_xc32.o
 .text          0x00000000        0x0 build/default/production/_ext/1171490990/freertos_hooks.o
 .data          0x00000000        0x0 build/default/production/_ext/1171490990/freertos_hooks.o
 .bss           0x00000000        0x0 build/default/production/_ext/1171490990/freertos_hooks.o
 .text.vApplicationIdleHook
                0x00000000        0x2 build/default/production/_ext/1171490990/freertos_hooks.o
 .text.vApplicationTickHook
                0x00000000        0x2 build/default/production/_ext/1171490990/freertos_hooks.o
 .text.vAssertCalled
                0x00000000       0x1c build/default/production/_ext/1171490990/freertos_hooks.o
 .text          0x00000000        0x0 build/default/production/_ext/246609638/port.o
 .data          0x00000000        0x0 build/default/production/_ext/246609638/port.o
 .bss           0x00000000        0x0 build/default/production/_ext/246609638/port.o
 .text.vPortEndScheduler
                0x00000000        0x2 build/default/production/_ext/246609638/port.o
 .text          0x00000000        0x0 build/default/production/_ext/1665200909/heap_1.o
 .data          0x00000000        0x0 build/default/production/_ext/1665200909/heap_1.o
 .bss           0x00000000        0x0 build/default/production/_ext/1665200909/heap_1.o
 .text.vPortInitialiseBlocks
                0x00000000        0xc build/default/production/_ext/1665200909/heap_1.o
 .text.xPortGetFreeHeapSize
                0x00000000       0x10 build/default/production/_ext/1665200909/heap_1.o
 .text          0x00000000        0x0 build/default/production/_ext/404212886/stream_buffer.o
 .data          0x00000000        0x0 build/default/production/_ext/404212886/stream_buffer.o
 .bss           0x00000000        0x0 build/default/production/_ext/404212886/stream_buffer.o
 .text.prvBytesInBuffer
                0x00000000       0x12 build/default/production/_ext/404212886/stream_buffer.o
 .text.prvWriteBytesToBuffer
                0x00000000       0x40 build/default/production/_ext/404212886/stream_buffer.o
 .text.prvWriteMessageToBuffer
                0x00000000       0x4e build/default/production/_ext/404212886/stream_buffer.o
 .text.prvReadBytesFromBuffer
                0x00000000       0x42 build/default/production/_ext/404212886/stream_buffer.o
 .text.prvReadMessageFromBuffer
                0x00000000       0x4e build/default/production/_ext/404212886/stream_buffer.o
 .text.xStreamBufferGenericCreate
                0x00000000       0x42 build/default/production/_ext/404212886/stream_buffer.o
 .text.vStreamBufferDelete
                0x00000000       0x1a build/default/production/_ext/404212886/stream_buffer.o
 .text.xStreamBufferReset
                0x00000000       0x44 build/default/production/_ext/404212886/stream_buffer.o
 .text.xStreamBufferSetTriggerLevel
                0x00000000       0x14 build/default/production/_ext/404212886/stream_buffer.o
 .text.xStreamBufferSpacesAvailable
                0x00000000       0x20 build/default/production/_ext/404212886/stream_buffer.o
 .text.xStreamBufferBytesAvailable
                0x00000000        0x8 build/default/production/_ext/404212886/stream_buffer.o
 .text.xStreamBufferSend
                0x00000000       0xd8 build/default/production/_ext/404212886/stream_buffer.o
 .text.xStreamBufferSendFromISR
                0x00000000       0x78 build/default/production/_ext/404212886/stream_buffer.o
 .text.xStreamBufferReceive
                0x00000000       0xa4 build/default/production/_ext/404212886/stream_buffer.o
 .text.xStreamBufferNextMessageLengthBytes
                0x00000000       0x32 build/default/production/_ext/404212886/stream_buffer.o
 .text.xStreamBufferReceiveFromISR
                0x00000000       0x6c build/default/production/_ext/404212886/stream_buffer.o
 .text.xStreamBufferIsEmpty
                0x00000000        0xe build/default/production/_ext/404212886/stream_buffer.o
 .text.xStreamBufferIsFull
                0x00000000       0x18 build/default/production/_ext/404212886/stream_buffer.o
 .text.xStreamBufferSendCompletedFromISR
                0x00000000       0x40 build/default/production/_ext/404212886/stream_buffer.o
 .text.xStreamBufferReceiveCompletedFromISR
                0x00000000       0x40 build/default/production/_ext/404212886/stream_buffer.o
 .debug_info    0x00000000     0x1d1f build/default/production/_ext/404212886/stream_buffer.o
 .debug_abbrev  0x00000000      0x318 build/default/production/_ext/404212886/stream_buffer.o
 .debug_loc     0x00000000     0x1a59 build/default/production/_ext/404212886/stream_buffer.o
 .debug_aranges
                0x00000000       0xb8 build/default/production/_ext/404212886/stream_buffer.o
 .debug_ranges  0x00000000       0xd0 build/default/production/_ext/404212886/stream_buffer.o
 .debug_line    0x00000000      0xab9 build/default/production/_ext/404212886/stream_buffer.o
 .debug_str     0x00000000      0x267 build/default/production/_ext/404212886/stream_buffer.o
 .comment       0x00000000       0x2c build/default/production/_ext/404212886/stream_buffer.o
 .debug_frame   0x00000000      0x27c build/default/production/_ext/404212886/stream_buffer.o
 .ARM.attributes
                0x00000000       0x34 build/default/production/_ext/404212886/stream_buffer.o
 .text          0x00000000        0x0 build/default/production/_ext/404212886/croutine.o
 .data          0x00000000        0x0 build/default/production/_ext/404212886/croutine.o
 .bss           0x00000000        0x0 build/default/production/_ext/404212886/croutine.o
 .debug_info    0x00000000      0x2e9 build/default/production/_ext/404212886/croutine.o
 .debug_abbrev  0x00000000       0x1b build/default/production/_ext/404212886/croutine.o
 .debug_aranges
                0x00000000       0x18 build/default/production/_ext/404212886/croutine.o
 .debug_line    0x00000000       0x1d build/default/production/_ext/404212886/croutine.o
 .debug_str     0x00000000        0x0 build/default/production/_ext/404212886/croutine.o
 .comment       0x00000000       0x2c build/default/production/_ext/404212886/croutine.o
 .ARM.attributes
                0x00000000       0x39 build/default/production/_ext/404212886/croutine.o
 .text          0x00000000        0x0 build/default/production/_ext/404212886/queue.o
 .data          0x00000000        0x0 build/default/production/_ext/404212886/queue.o
 .bss           0x00000000        0x0 build/default/production/_ext/404212886/queue.o
 .text.prvCopyDataFromQueue
                0x00000000       0x24 build/default/production/_ext/404212886/queue.o
 .text.xQueueGenericSendFromISR
                0x00000000       0x7c build/default/production/_ext/404212886/queue.o
 .text.xQueueReceive
                0x00000000      0x110 build/default/production/_ext/404212886/queue.o
 .text.xQueuePeek
                0x00000000      0x10c build/default/production/_ext/404212886/queue.o
 .text.xQueueReceiveFromISR
                0x00000000       0x7e build/default/production/_ext/404212886/queue.o
 .text.xQueuePeekFromISR
                0x00000000       0x30 build/default/production/_ext/404212886/queue.o
 .text.uxQueueMessagesWaiting
                0x00000000       0x12 build/default/production/_ext/404212886/queue.o
 .text.uxQueueSpacesAvailable
                0x00000000       0x16 build/default/production/_ext/404212886/queue.o
 .text.uxQueueMessagesWaitingFromISR
                0x00000000        0x4 build/default/production/_ext/404212886/queue.o
 .text.vQueueDelete
                0x00000000        0x8 build/default/production/_ext/404212886/queue.o
 .text.xQueueIsQueueEmptyFromISR
                0x00000000        0xa build/default/production/_ext/404212886/queue.o
 .text.xQueueIsQueueFullFromISR
                0x00000000        0xe build/default/production/_ext/404212886/queue.o
 .text          0x00000000        0x0 build/default/production/_ext/404212886/FreeRTOS_tasks.o
 .data          0x00000000        0x0 build/default/production/_ext/404212886/FreeRTOS_tasks.o
 .bss           0x00000000        0x0 build/default/production/_ext/404212886/FreeRTOS_tasks.o
 .text.vTaskDelete
                0x00000000       0xd4 build/default/production/_ext/404212886/FreeRTOS_tasks.o
 .text.uxTaskPriorityGet
                0x00000000       0x20 build/default/production/_ext/404212886/FreeRTOS_tasks.o
 .text.uxTaskPriorityGetFromISR
                0x00000000       0x28 build/default/production/_ext/404212886/FreeRTOS_tasks.o
 .text.vTaskPrioritySet
                0x00000000       0xec build/default/production/_ext/404212886/FreeRTOS_tasks.o
 .text.vTaskResume
                0x00000000       0xa4 build/default/production/_ext/404212886/FreeRTOS_tasks.o
 .text.vTaskEndScheduler
                0x00000000       0x24 build/default/production/_ext/404212886/FreeRTOS_tasks.o
 .text.xTaskGetTickCount
                0x00000000        0xc build/default/production/_ext/404212886/FreeRTOS_tasks.o
 .text.xTaskGetTickCountFromISR
                0x00000000        0xc build/default/production/_ext/404212886/FreeRTOS_tasks.o
 .text.pcTaskGetName
                0x00000000       0x14 build/default/production/_ext/404212886/FreeRTOS_tasks.o
 .text.xTaskDelayUntil
                0x00000000       0x6c build/default/production/_ext/404212886/FreeRTOS_tasks.o
 .text.xTaskCatchUpTicks
                0x00000000       0x24 build/default/production/_ext/404212886/FreeRTOS_tasks.o
 .text.vTaskSuspend
                0x00000000       0xcc build/default/production/_ext/404212886/FreeRTOS_tasks.o
 .text.vTaskPlaceOnUnorderedEventList
                0x00000000       0x3c build/default/production/_ext/404212886/FreeRTOS_tasks.o
 .text.vTaskRemoveFromUnorderedEventList
                0x00000000       0xb0 build/default/production/_ext/404212886/FreeRTOS_tasks.o
 .text.vTaskSetTimeOutState
                0x00000000       0x24 build/default/production/_ext/404212886/FreeRTOS_tasks.o
 .text.xTaskGetCurrentTaskHandle
                0x00000000        0xc build/default/production/_ext/404212886/FreeRTOS_tasks.o
 .text.uxTaskResetEventItemValue
                0x00000000       0x18 build/default/production/_ext/404212886/FreeRTOS_tasks.o
 .text.ulTaskGenericNotifyTake
                0x00000000       0x98 build/default/production/_ext/404212886/FreeRTOS_tasks.o
 .text.xTaskGenericNotifyWait
                0x00000000       0xb4 build/default/production/_ext/404212886/FreeRTOS_tasks.o
 .text.xTaskGenericNotify
                0x00000000      0x118 build/default/production/_ext/404212886/FreeRTOS_tasks.o
 .text.xTaskGenericNotifyFromISR
                0x00000000      0x140 build/default/production/_ext/404212886/FreeRTOS_tasks.o
 .text.vTaskGenericNotifyGiveFromISR
                0x00000000       0xf0 build/default/production/_ext/404212886/FreeRTOS_tasks.o
 .text.xTaskGenericNotifyStateClear
                0x00000000       0x38 build/default/production/_ext/404212886/FreeRTOS_tasks.o
 .text.ulTaskGenericNotifyValueClear
                0x00000000       0x30 build/default/production/_ext/404212886/FreeRTOS_tasks.o
 .text          0x00000000        0x0 build/default/production/_ext/404212886/timers.o
 .data          0x00000000        0x0 build/default/production/_ext/404212886/timers.o
 .bss           0x00000000        0x0 build/default/production/_ext/404212886/timers.o
 .debug_info    0x00000000      0x2e7 build/default/production/_ext/404212886/timers.o
 .debug_abbrev  0x00000000       0x1b build/default/production/_ext/404212886/timers.o
 .debug_aranges
                0x00000000       0x18 build/default/production/_ext/404212886/timers.o
 .debug_line    0x00000000       0x1d build/default/production/_ext/404212886/timers.o
 .debug_str     0x00000000        0x0 build/default/production/_ext/404212886/timers.o
 .comment       0x00000000       0x2c build/default/production/_ext/404212886/timers.o
 .ARM.attributes
                0x00000000       0x39 build/default/production/_ext/404212886/timers.o
 .text          0x00000000        0x0 build/default/production/_ext/404212886/event_groups.o
 .data          0x00000000        0x0 build/default/production/_ext/404212886/event_groups.o
 .bss           0x00000000        0x0 build/default/production/_ext/404212886/event_groups.o
 .text.xEventGroupCreate
                0x00000000       0x1a build/default/production/_ext/404212886/event_groups.o
 .text.xEventGroupWaitBits
                0x00000000       0xc0 build/default/production/_ext/404212886/event_groups.o
 .text.xEventGroupClearBits
                0x00000000       0x1a build/default/production/_ext/404212886/event_groups.o
 .text.xEventGroupGetBitsFromISR
                0x00000000       0x1c build/default/production/_ext/404212886/event_groups.o
 .text.xEventGroupSetBits
                0x00000000       0x66 build/default/production/_ext/404212886/event_groups.o
 .text.xEventGroupSync
                0x00000000       0x90 build/default/production/_ext/404212886/event_groups.o
 .text.vEventGroupDelete
                0x00000000       0x2a build/default/production/_ext/404212886/event_groups.o
 .text.vEventGroupSetBitsCallback
                0x00000000        0x8 build/default/production/_ext/404212886/event_groups.o
 .text.vEventGroupClearBitsCallback
                0x00000000        0x8 build/default/production/_ext/404212886/event_groups.o
 .debug_info    0x00000000      0xf68 build/default/production/_ext/404212886/event_groups.o
 .debug_abbrev  0x00000000      0x2ef build/default/production/_ext/404212886/event_groups.o
 .debug_loc     0x00000000      0xac5 build/default/production/_ext/404212886/event_groups.o
 .debug_aranges
                0x00000000       0x60 build/default/production/_ext/404212886/event_groups.o
 .debug_ranges  0x00000000       0x98 build/default/production/_ext/404212886/event_groups.o
 .debug_line    0x00000000      0x5da build/default/production/_ext/404212886/event_groups.o
 .debug_str     0x00000000      0x1ac build/default/production/_ext/404212886/event_groups.o
 .comment       0x00000000       0x2c build/default/production/_ext/404212886/event_groups.o
 .debug_frame   0x00000000      0x100 build/default/production/_ext/404212886/event_groups.o
 .ARM.attributes
                0x00000000       0x34 build/default/production/_ext/404212886/event_groups.o
 .text          0x00000000        0x0 build/default/production/_ext/404212886/list.o
 .data          0x00000000        0x0 build/default/production/_ext/404212886/list.o
 .bss           0x00000000        0x0 build/default/production/_ext/404212886/list.o
 .text.vListInsertEnd
                0x00000000       0x16 build/default/production/_ext/404212886/list.o
 .text          0x00000000        0x0 build/default/production/_ext/1360937237/main.o
 .data          0x00000000        0x0 build/default/production/_ext/1360937237/main.o
 .bss           0x00000000        0x0 build/default/production/_ext/1360937237/main.o
 .text          0x00000000        0x0 build/default/production/_ext/504274921/plib_sercom3_usart.o
 .data          0x00000000        0x0 build/default/production/_ext/504274921/plib_sercom3_usart.o
 .bss           0x00000000        0x0 build/default/production/_ext/504274921/plib_sercom3_usart.o
 .text.SERCOM3_USART_FrequencyGet
                0x00000000        0x8 build/default/production/_ext/504274921/plib_sercom3_usart.o
 .text.SERCOM3_USART_SerialSetup
                0x00000000      0x124 build/default/production/_ext/504274921/plib_sercom3_usart.o
 .text.SERCOM3_USART_Enable
                0x00000000       0x20 build/default/production/_ext/504274921/plib_sercom3_usart.o
 .text.SERCOM3_USART_Disable
                0x00000000       0x20 build/default/production/_ext/504274921/plib_sercom3_usart.o
 .text.SERCOM3_USART_TransmitterEnable
                0x00000000       0x18 build/default/production/_ext/504274921/plib_sercom3_usart.o
 .text.SERCOM3_USART_TransmitterDisable
                0x00000000       0x18 build/default/production/_ext/504274921/plib_sercom3_usart.o
 .text.SERCOM3_USART_TransmitterIsReady
                0x00000000       0x10 build/default/production/_ext/504274921/plib_sercom3_usart.o
 .text.SERCOM3_USART_WriteByte
                0x00000000       0x18 build/default/production/_ext/504274921/plib_sercom3_usart.o
 .text.SERCOM3_USART_TransmitComplete
                0x00000000       0x10 build/default/production/_ext/504274921/plib_sercom3_usart.o
 .text.SERCOM3_USART_ReceiverEnable
                0x00000000       0x18 build/default/production/_ext/504274921/plib_sercom3_usart.o
 .text.SERCOM3_USART_ReceiverDisable
                0x00000000       0x18 build/default/production/_ext/504274921/plib_sercom3_usart.o
 .text.SERCOM3_USART_ReadByte
                0x00000000        0xc build/default/production/_ext/504274921/plib_sercom3_usart.o
 .text          0x00000000        0x0 build/default/production/_ext/1100529066/drv_sdspi_file_system.o
 .data          0x00000000        0x0 build/default/production/_ext/1100529066/drv_sdspi_file_system.o
 .bss           0x00000000        0x0 build/default/production/_ext/1100529066/drv_sdspi_file_system.o
 .text          0x00000000        0x0 build/default/production/_ext/714983638/plib_sercom4_i2c_slave.o
 .data          0x00000000        0x0 build/default/production/_ext/714983638/plib_sercom4_i2c_slave.o
 .bss           0x00000000        0x0 build/default/production/_ext/714983638/plib_sercom4_i2c_slave.o
 .text.SERCOM4_I2C_CallbackRegister
                0x00000000        0xc build/default/production/_ext/714983638/plib_sercom4_i2c_slave.o
 .text.SERCOM4_I2C_IsBusy
                0x00000000        0xc build/default/production/_ext/714983638/plib_sercom4_i2c_slave.o
 .text.SERCOM4_I2C_ReadByte
                0x00000000       0x14 build/default/production/_ext/714983638/plib_sercom4_i2c_slave.o
 .text.SERCOM4_I2C_WriteByte
                0x00000000       0x10 build/default/production/_ext/714983638/plib_sercom4_i2c_slave.o
 .text.SERCOM4_I2C_ErrorGet
                0x00000000       0x10 build/default/production/_ext/714983638/plib_sercom4_i2c_slave.o
 .text.SERCOM4_I2C_AckActionSet
                0x00000000       0x1e build/default/production/_ext/714983638/plib_sercom4_i2c_slave.o
 .text          0x00000000        0x0 build/default/production/_ext/1269487135/sys_fs_fat_interface.o
 .data          0x00000000        0x0 build/default/production/_ext/1269487135/sys_fs_fat_interface.o
 .bss           0x00000000        0x0 build/default/production/_ext/1269487135/sys_fs_fat_interface.o
 .text.FATFS_getfree
                0x00000000        0x8 build/default/production/_ext/1269487135/sys_fs_fat_interface.o
 .text          0x00000000        0x0 build/default/production/_ext/411819097/ff.o
 .data          0x00000000        0x0 build/default/production/_ext/411819097/ff.o
 .bss           0x00000000        0x0 build/default/production/_ext/411819097/ff.o
 .text          0x00000000        0x0 build/default/production/_ext/14461671/sys_dma.o
 .data          0x00000000        0x0 build/default/production/_ext/14461671/sys_dma.o
 .bss           0x00000000        0x0 build/default/production/_ext/14461671/sys_dma.o
 .text.SYS_DMA_AddressingModeSetup
                0x00000000        0x2 build/default/production/_ext/14461671/sys_dma.o
 .text.SYS_DMA_DataWidthSetup
                0x00000000        0x2 build/default/production/_ext/14461671/sys_dma.o
 .debug_info    0x00000000      0x877 build/default/production/_ext/14461671/sys_dma.o
 .debug_abbrev  0x00000000       0xae build/default/production/_ext/14461671/sys_dma.o
 .debug_aranges
                0x00000000       0x28 build/default/production/_ext/14461671/sys_dma.o
 .debug_ranges  0x00000000       0x18 build/default/production/_ext/14461671/sys_dma.o
 .debug_line    0x00000000       0x7d build/default/production/_ext/14461671/sys_dma.o
 .debug_str     0x00000000        0x0 build/default/production/_ext/14461671/sys_dma.o
 .comment       0x00000000       0x2c build/default/production/_ext/14461671/sys_dma.o
 .debug_frame   0x00000000       0x30 build/default/production/_ext/14461671/sys_dma.o
 .ARM.attributes
                0x00000000       0x34 build/default/production/_ext/14461671/sys_dma.o
 .text          0x00000000        0x0 build/default/production/_ext/60180175/plib_rtc_timer.o
 .data          0x00000000        0x0 build/default/production/_ext/60180175/plib_rtc_timer.o
 .bss           0x00000000        0x0 build/default/production/_ext/60180175/plib_rtc_timer.o
 .text.RTC_Timer32CountSyncEnable
                0x00000000       0x18 build/default/production/_ext/60180175/plib_rtc_timer.o
 .text.RTC_Timer32CountSyncDisable
                0x00000000       0x18 build/default/production/_ext/60180175/plib_rtc_timer.o
 .text.RTC_Timer32CounterSet
                0x00000000       0x14 build/default/production/_ext/60180175/plib_rtc_timer.o
 .text.RTC_Timer32Compare0Set
                0x00000000       0x14 build/default/production/_ext/60180175/plib_rtc_timer.o
 .text.RTC_Timer32Compare1Set
                0x00000000       0x14 build/default/production/_ext/60180175/plib_rtc_timer.o
 .text.RTC_Timer32CounterGet
                0x00000000       0x34 build/default/production/_ext/60180175/plib_rtc_timer.o
 .text.RTC_Timer32PeriodGet
                0x00000000        0x6 build/default/production/_ext/60180175/plib_rtc_timer.o
 .text.RTC_Timer32InterruptEnable
                0x00000000        0xc build/default/production/_ext/60180175/plib_rtc_timer.o
 .text.RTC_Timer32InterruptDisable
                0x00000000        0xc build/default/production/_ext/60180175/plib_rtc_timer.o
 .text.RTC_BackupRegisterSet
                0x00000000       0x10 build/default/production/_ext/60180175/plib_rtc_timer.o
 .text.RTC_BackupRegisterGet
                0x00000000       0x10 build/default/production/_ext/60180175/plib_rtc_timer.o
 .text.RTC_TamperSourceGet
                0x00000000        0xc build/default/production/_ext/60180175/plib_rtc_timer.o
 .text.RTC_Timer32TimeStampGet
                0x00000000        0xc build/default/production/_ext/60180175/plib_rtc_timer.o
 .text          0x00000000        0x0 build/default/production/_ext/1269487135/sys_fs.o
 .data          0x00000000        0x0 build/default/production/_ext/1269487135/sys_fs.o
 .bss           0x00000000        0x0 build/default/production/_ext/1269487135/sys_fs.o
 .text.SYS_FS_GetDisk
                0x00000000       0xc4 build/default/production/_ext/1269487135/sys_fs.o
 .text.SYS_FS_Mount
                0x00000000      0x1a8 build/default/production/_ext/1269487135/sys_fs.o
 .text.SYS_FS_Unmount
                0x00000000      0x100 build/default/production/_ext/1269487135/sys_fs.o
 .text.SYS_FS_FileOpen
                0x00000000      0x128 build/default/production/_ext/1269487135/sys_fs.o
 .text.SYS_FS_FileClose
                0x00000000       0x7c build/default/production/_ext/1269487135/sys_fs.o
 .text.SYS_FS_FileNameGet
                0x00000000       0x50 build/default/production/_ext/1269487135/sys_fs.o
 .text.SYS_FS_FileRead
                0x00000000       0x84 build/default/production/_ext/1269487135/sys_fs.o
 .text.SYS_FS_FileSeek
                0x00000000       0xdc build/default/production/_ext/1269487135/sys_fs.o
 .text.SYS_FS_FileTell
                0x00000000       0x7c build/default/production/_ext/1269487135/sys_fs.o
 .text.SYS_FS_FileSize
                0x00000000       0x7c build/default/production/_ext/1269487135/sys_fs.o
 .text.SYS_FS_FileEOF
                0x00000000       0x68 build/default/production/_ext/1269487135/sys_fs.o
 .text.SYS_FS_FileStat
                0x00000000       0x9c build/default/production/_ext/1269487135/sys_fs.o
 .text.SYS_FS_Error
                0x00000000        0xc build/default/production/_ext/1269487135/sys_fs.o
 .text.SYS_FS_FileError
                0x00000000       0x16 build/default/production/_ext/1269487135/sys_fs.o
 .text.SYS_FS_DirOpen
                0x00000000       0xdc build/default/production/_ext/1269487135/sys_fs.o
 .text.SYS_FS_DirClose
                0x00000000       0x7c build/default/production/_ext/1269487135/sys_fs.o
 .text.SYS_FS_DirRead
                0x00000000       0x80 build/default/production/_ext/1269487135/sys_fs.o
 .text.SYS_FS_DirRewind
                0x00000000       0x78 build/default/production/_ext/1269487135/sys_fs.o
 .text.SYS_FS_DirSearch
                0x00000000      0x148 build/default/production/_ext/1269487135/sys_fs.o
 .text.SYS_FS_FileStringGet
                0x00000000       0x8c build/default/production/_ext/1269487135/sys_fs.o
 .text.SYS_FS_DirectoryChange
                0x00000000       0x94 build/default/production/_ext/1269487135/sys_fs.o
 .text.SYS_FS_CurrentWorkingDirectoryGet
                0x00000000      0x13c build/default/production/_ext/1269487135/sys_fs.o
 .text.SYS_FS_CurrentDriveGet
                0x00000000       0x4c build/default/production/_ext/1269487135/sys_fs.o
 .text.SYS_FS_DriveLabelGet
                0x00000000       0xb8 build/default/production/_ext/1269487135/sys_fs.o
 .text.SYS_FS_FileWrite
                0x00000000       0x88 build/default/production/_ext/1269487135/sys_fs.o
 .text.SYS_FS_FileSync
                0x00000000       0x78 build/default/production/_ext/1269487135/sys_fs.o
 .text.SYS_FS_FileTruncate
                0x00000000       0x70 build/default/production/_ext/1269487135/sys_fs.o
 .text.SYS_FS_FileCharacterPut
                0x00000000       0x84 build/default/production/_ext/1269487135/sys_fs.o
 .text.SYS_FS_FileStringPut
                0x00000000       0x8c build/default/production/_ext/1269487135/sys_fs.o
 .text.SYS_FS_FilePrintf
                0x00000000       0x9c build/default/production/_ext/1269487135/sys_fs.o
 .text.SYS_FS_FileTestError
                0x00000000       0x68 build/default/production/_ext/1269487135/sys_fs.o
 .text.SYS_FS_DirectoryMake
                0x00000000       0x94 build/default/production/_ext/1269487135/sys_fs.o
 .text.SYS_FS_FileDirectoryRemove
                0x00000000       0x94 build/default/production/_ext/1269487135/sys_fs.o
 .text.SYS_FS_FileDirectoryModeSet
                0x00000000       0x9c build/default/production/_ext/1269487135/sys_fs.o
 .text.SYS_FS_FileDirectoryTimeSet
                0x00000000       0xb0 build/default/production/_ext/1269487135/sys_fs.o
 .text.SYS_FS_FileDirectoryRenameMove
                0x00000000       0xc0 build/default/production/_ext/1269487135/sys_fs.o
 .text.SYS_FS_CurrentDriveSet
                0x00000000       0xb0 build/default/production/_ext/1269487135/sys_fs.o
 .text.SYS_FS_DriveLabelSet
                0x00000000       0xc8 build/default/production/_ext/1269487135/sys_fs.o
 .text.SYS_FS_DriveFormat
                0x00000000       0x84 build/default/production/_ext/1269487135/sys_fs.o
 .text.SYS_FS_DrivePartition
                0x00000000       0x84 build/default/production/_ext/1269487135/sys_fs.o
 .text.SYS_FS_DriveSectorGet
                0x00000000       0xc8 build/default/production/_ext/1269487135/sys_fs.o
 .rodata        0x00000000        0x8 build/default/production/_ext/1269487135/sys_fs.o
 .bss.errorValue
                0x00000000        0x1 build/default/production/_ext/1269487135/sys_fs.o
 .bss.gSYSFSCurrentMountPoint
                0x00000000        0x8 build/default/production/_ext/1269487135/sys_fs.o
 .text          0x00000000        0x0 build/default/production/_ext/565198302/diskio.o
 .data          0x00000000        0x0 build/default/production/_ext/565198302/diskio.o
 .bss           0x00000000        0x0 build/default/production/_ext/565198302/diskio.o
 .text          0x00000000        0x0 build/default/production/_ext/101884895/sys_time.o
 .data          0x00000000        0x0 build/default/production/_ext/101884895/sys_time.o
 .bss           0x00000000        0x0 build/default/production/_ext/101884895/sys_time.o
 .text.SYS_TIME_Deinitialize
                0x00000000       0x30 build/default/production/_ext/101884895/sys_time.o
 .text.SYS_TIME_Status
                0x00000000       0x14 build/default/production/_ext/101884895/sys_time.o
 .text.SYS_TIME_FrequencyGet
                0x00000000        0xc build/default/production/_ext/101884895/sys_time.o
 .text.SYS_TIME_Counter64Get
                0x00000000       0x1c build/default/production/_ext/101884895/sys_time.o
 .text.SYS_TIME_CounterGet
                0x00000000        0x8 build/default/production/_ext/101884895/sys_time.o
 .text.SYS_TIME_CounterSet
                0x00000000       0x1c build/default/production/_ext/101884895/sys_time.o
 .text.SYS_TIME_CountToUS
                0x00000000       0x44 build/default/production/_ext/101884895/sys_time.o
 .text.SYS_TIME_CountToMS
                0x00000000       0x3c build/default/production/_ext/101884895/sys_time.o
 .text.SYS_TIME_USToCount
                0x00000000       0x1c build/default/production/_ext/101884895/sys_time.o
 .text.SYS_TIME_MSToCount
                0x00000000       0x1c build/default/production/_ext/101884895/sys_time.o
 .text.SYS_TIME_TimerCreate
                0x00000000       0x1c build/default/production/_ext/101884895/sys_time.o
 .text.SYS_TIME_TimerReload
                0x00000000       0x80 build/default/production/_ext/101884895/sys_time.o
 .text.SYS_TIME_TimerStop
                0x00000000       0x3c build/default/production/_ext/101884895/sys_time.o
 .text.SYS_TIME_TimerCounterGet
                0x00000000       0x6c build/default/production/_ext/101884895/sys_time.o
 .text.SYS_TIME_TimerPeriodHasExpired
                0x00000000       0x28 build/default/production/_ext/101884895/sys_time.o
 .text.SYS_TIME_DelayUS
                0x00000000       0x50 build/default/production/_ext/101884895/sys_time.o
 .text.SYS_TIME_DelayMS
                0x00000000       0x50 build/default/production/_ext/101884895/sys_time.o
 .text.SYS_TIME_DelayIsComplete
                0x00000000       0x18 build/default/production/_ext/101884895/sys_time.o
 .text.SYS_TIME_CallbackRegisterUS
                0x00000000       0x58 build/default/production/_ext/101884895/sys_time.o
 .text          0x00000000        0x0 build/default/production/_ext/1171490990/tasks.o
 .data          0x00000000        0x0 build/default/production/_ext/1171490990/tasks.o
 .bss           0x00000000        0x0 build/default/production/_ext/1171490990/tasks.o
 .text          0x00000000        0x0 build/default/production/_ext/1269487135/sys_fs_media_manager.o
 .data          0x00000000        0x0 build/default/production/_ext/1269487135/sys_fs_media_manager.o
 .bss           0x00000000        0x0 build/default/production/_ext/1269487135/sys_fs_media_manager.o
 .text.SYS_FS_MEDIA_MANAGER_DeRegister
                0x00000000        0xc build/default/production/_ext/1269487135/sys_fs_media_manager.o
 .text.SYS_FS_MEDIA_MANAGER_Read
                0x00000000       0x4c build/default/production/_ext/1269487135/sys_fs_media_manager.o
 .text.SYS_FS_MEDIA_MANAGER_AddressGet
                0x00000000       0x1c build/default/production/_ext/1269487135/sys_fs_media_manager.o
 .text.SYS_FS_MEDIA_MANAGER_CommandStatusGet
                0x00000000       0x28 build/default/production/_ext/1269487135/sys_fs_media_manager.o
 .text.SYS_FS_MEDIA_MANAGER_MediaStatusGet
                0x00000000       0x5c build/default/production/_ext/1269487135/sys_fs_media_manager.o
 .text.SYS_FS_MEDIA_MANAGER_VolumePropertyGet
                0x00000000       0x30 build/default/production/_ext/1269487135/sys_fs_media_manager.o
 .text          0x00000000        0x0 build/default/production/_ext/1529399856/osal_freertos.o
 .data          0x00000000        0x0 build/default/production/_ext/1529399856/osal_freertos.o
 .bss           0x00000000        0x0 build/default/production/_ext/1529399856/osal_freertos.o
 .text.OSAL_CRIT_Enter
                0x00000000       0x18 build/default/production/_ext/1529399856/osal_freertos.o
 .text.OSAL_CRIT_Leave
                0x00000000       0x16 build/default/production/_ext/1529399856/osal_freertos.o
 .text.OSAL_SEM_Delete
                0x00000000       0x12 build/default/production/_ext/1529399856/osal_freertos.o
 .text.OSAL_SEM_Post
                0x00000000       0x18 build/default/production/_ext/1529399856/osal_freertos.o
 .text.OSAL_SEM_GetCount
                0x00000000       0x12 build/default/production/_ext/1529399856/osal_freertos.o
 .text.OSAL_MUTEX_Delete
                0x00000000       0x1a build/default/production/_ext/1529399856/osal_freertos.o
 .text.OSAL_Malloc
                0x00000000        0x8 build/default/production/_ext/1529399856/osal_freertos.o
 .text.OSAL_Free
                0x00000000        0x8 build/default/production/_ext/1529399856/osal_freertos.o
 .text.OSAL_Initialize
                0x00000000        0x4 build/default/production/_ext/1529399856/osal_freertos.o
 .text          0x00000000        0x0 build/default/production/_ext/1100529066/drv_sdspi.o
 .data          0x00000000        0x0 build/default/production/_ext/1100529066/drv_sdspi.o
 .bss           0x00000000        0x0 build/default/production/_ext/1100529066/drv_sdspi.o
 .text.DRV_SDSPI_Status
                0x00000000       0x14 build/default/production/_ext/1100529066/drv_sdspi.o
 .text.DRV_SDSPI_SyncRead
                0x00000000       0x18 build/default/production/_ext/1100529066/drv_sdspi.o
 .text.DRV_SDSPI_SyncWrite
                0x00000000       0x18 build/default/production/_ext/1100529066/drv_sdspi.o
 .text.DRV_SDSPI_IsWriteProtected
                0x00000000       0x38 build/default/production/_ext/1100529066/drv_sdspi.o
 .text          0x00000000        0x0 build/default/production/_ext/1014039709/sys_cache.o
 .data          0x00000000        0x0 build/default/production/_ext/1014039709/sys_cache.o
 .bss           0x00000000        0x0 build/default/production/_ext/1014039709/sys_cache.o
 .text.SYS_CACHE_EnableCaches
                0x00000000        0x2 build/default/production/_ext/1014039709/sys_cache.o
 .text.SYS_CACHE_DisableCaches
                0x00000000        0x2 build/default/production/_ext/1014039709/sys_cache.o
 .text.SYS_CACHE_EnableICache
                0x00000000        0x2 build/default/production/_ext/1014039709/sys_cache.o
 .text.SYS_CACHE_DisableICache
                0x00000000        0x2 build/default/production/_ext/1014039709/sys_cache.o
 .text.SYS_CACHE_InvalidateICache
                0x00000000        0x2 build/default/production/_ext/1014039709/sys_cache.o
 .text.SYS_CACHE_EnableDCache
                0x00000000        0x2 build/default/production/_ext/1014039709/sys_cache.o
 .text.SYS_CACHE_DisableDCache
                0x00000000        0x2 build/default/production/_ext/1014039709/sys_cache.o
 .text.SYS_CACHE_InvalidateDCache
                0x00000000        0x2 build/default/production/_ext/1014039709/sys_cache.o
 .text.SYS_CACHE_CleanDCache
                0x00000000        0x2 build/default/production/_ext/1014039709/sys_cache.o
 .text.SYS_CACHE_InvalidateDCache_by_Addr
                0x00000000        0x2 build/default/production/_ext/1014039709/sys_cache.o
 .text.SYS_CACHE_CleanDCache_by_Addr
                0x00000000        0x2 build/default/production/_ext/1014039709/sys_cache.o
 .text.SYS_CACHE_CleanInvalidateDCache
                0x00000000        0x2 build/default/production/_ext/1014039709/sys_cache.o
 .text.SYS_CACHE_CleanInvalidateDCache_by_Addr
                0x00000000        0x2 build/default/production/_ext/1014039709/sys_cache.o
 .debug_info    0x00000000      0x5b8 build/default/production/_ext/1014039709/sys_cache.o
 .debug_abbrev  0x00000000       0x7e build/default/production/_ext/1014039709/sys_cache.o
 .debug_aranges
                0x00000000       0x80 build/default/production/_ext/1014039709/sys_cache.o
 .debug_ranges  0x00000000       0x70 build/default/production/_ext/1014039709/sys_cache.o
 .debug_line    0x00000000      0x191 build/default/production/_ext/1014039709/sys_cache.o
 .debug_str     0x00000000        0x0 build/default/production/_ext/1014039709/sys_cache.o
 .comment       0x00000000       0x2c build/default/production/_ext/1014039709/sys_cache.o
 .debug_frame   0x00000000       0xe0 build/default/production/_ext/1014039709/sys_cache.o
 .ARM.attributes
                0x00000000       0x34 build/default/production/_ext/1014039709/sys_cache.o
 .text          0x00000000        0x0 build/default/production/_ext/1881668453/sys_int.o
 .data          0x00000000        0x0 build/default/production/_ext/1881668453/sys_int.o
 .bss           0x00000000        0x0 build/default/production/_ext/1881668453/sys_int.o
 .text.SYS_INT_Enable
                0x00000000        0x8 build/default/production/_ext/1881668453/sys_int.o
 .text.SYS_INT_Disable
                0x00000000        0x8 build/default/production/_ext/1881668453/sys_int.o
 .text.SYS_INT_Restore
                0x00000000        0x8 build/default/production/_ext/1881668453/sys_int.o
 .text          0x00000000        0x0 build/default/production/_ext/1100529066/drv_sdspi_driver_interface.o
 .data          0x00000000        0x0 build/default/production/_ext/1100529066/drv_sdspi_driver_interface.o
 .bss           0x00000000        0x0 build/default/production/_ext/1100529066/drv_sdspi_driver_interface.o
 .text          0x00000000        0x0 build/default/production/_ext/60184501/plib_wdt.o
 .data          0x00000000        0x0 build/default/production/_ext/60184501/plib_wdt.o
 .bss           0x00000000        0x0 build/default/production/_ext/60184501/plib_wdt.o
 .text.WDT_Disable
                0x00000000       0x20 build/default/production/_ext/60184501/plib_wdt.o
 .text.WDT_EnableWindowMode
                0x00000000       0x34 build/default/production/_ext/60184501/plib_wdt.o
 .text.WDT_DisableWindowMode
                0x00000000       0x34 build/default/production/_ext/60184501/plib_wdt.o
 .text.WDT_IsEnabled
                0x00000000       0x14 build/default/production/_ext/60184501/plib_wdt.o
 .text.WDT_IsAlwaysOn
                0x00000000        0xc build/default/production/_ext/60184501/plib_wdt.o
 .text.WDT_IsWindowModeEnabled
                0x00000000       0x10 build/default/production/_ext/60184501/plib_wdt.o
 .text.WDT_ClearWithSync
                0x00000000       0x1c build/default/production/_ext/60184501/plib_wdt.o
 .text          0x00000000        0x0 build/default/production/_ext/17022449/plib_sercom2_spi_master.o
 .data          0x00000000        0x0 build/default/production/_ext/17022449/plib_sercom2_spi_master.o
 .bss           0x00000000        0x0 build/default/production/_ext/17022449/plib_sercom2_spi_master.o
 .text.SERCOM2_SPI_IsBusy
                0x00000000       0x2c build/default/production/_ext/17022449/plib_sercom2_spi_master.o
 .text.SERCOM2_SPI_Write
                0x00000000        0xc build/default/production/_ext/17022449/plib_sercom2_spi_master.o
 .text.SERCOM2_SPI_Read
                0x00000000       0x10 build/default/production/_ext/17022449/plib_sercom2_spi_master.o
 .text          0x00000000        0x0 build/default/production/_ext/2070931557/drv_spi.o
 .data          0x00000000        0x0 build/default/production/_ext/2070931557/drv_spi.o
 .bss           0x00000000        0x0 build/default/production/_ext/2070931557/drv_spi.o
 .text.DRV_SPI_Status
                0x00000000       0x14 build/default/production/_ext/2070931557/drv_spi.o
 .text.DRV_SPI_Close
                0x00000000       0x54 build/default/production/_ext/2070931557/drv_spi.o
 .text          0x00000000        0x0 build/default/production/_ext/1360937237/app.o
 .data          0x00000000        0x0 build/default/production/_ext/1360937237/app.o
 .bss           0x00000000        0x0 build/default/production/_ext/1360937237/app.o
 .text.FATFS_APP
                0x00000000       0x7c build/default/production/_ext/1360937237/app.o
 .text.I2C_READ
                0x00000000        0xc build/default/production/_ext/1360937237/app.o
 .bss.FatFs     0x00000000      0x240 build/default/production/_ext/1360937237/app.o
 .bss.Fil       0x00000000      0x230 build/default/production/_ext/1360937237/app.o
 .bss.bw        0x00000000        0x4 build/default/production/_ext/1360937237/app.o
 .data.APP_INIT_MSG
                0x00000000       0x14 build/default/production/_ext/1360937237/app.o
 .data.SD_FAILED_MSG
                0x00000000        0xa build/default/production/_ext/1360937237/app.o
 .data.SD_MOUNT_FAIL
                0x00000000       0x10 build/default/production/_ext/1360937237/app.o
 .data.SD_SUCCESS_MSG
                0x00000000        0xd build/default/production/_ext/1360937237/app.o
 .data.errorMessage
                0x00000000       0x27 build/default/production/_ext/1360937237/app.o
 .data.newline  0x00000000        0x3 build/default/production/_ext/1360937237/app.o
 .text          0x00000000        0x0 build/default/production/_ext/411819097/ffunicode.o
 .data          0x00000000        0x0 build/default/production/_ext/411819097/ffunicode.o
 .bss           0x00000000        0x0 build/default/production/_ext/411819097/ffunicode.o
 .text          0x00000000        0x0 build/default/production/pdu_packet.o
 .data          0x00000000        0x0 build/default/production/pdu_packet.o
 .bss           0x00000000        0x0 build/default/production/pdu_packet.o
 .text          0x00000000        0x0 c:/program files/microchip/xc32/v4.30/bin/bin/../../lib/gcc/pic32c/8.3.1/../../../../pic32c/lib/thumb/v7e-m+fp/hard\libpic32c.a(data_init.o)
 .data          0x00000000        0x0 c:/program files/microchip/xc32/v4.30/bin/bin/../../lib/gcc/pic32c/8.3.1/../../../../pic32c/lib/thumb/v7e-m+fp/hard\libpic32c.a(data_init.o)
 .xc_stack_usage
                0x00000000       0x4a c:/program files/microchip/xc32/v4.30/bin/bin/../../lib/gcc/pic32c/8.3.1/../../../../pic32c/lib/thumb/v7e-m+fp/hard\libpic32c.a(data_init.o)
 .xc_stack_usage.hdr
                0x00000000        0xe c:/program files/microchip/xc32/v4.30/bin/bin/../../lib/gcc/pic32c/8.3.1/../../../../pic32c/lib/thumb/v7e-m+fp/hard\libpic32c.a(data_init.o)
 .text          0x00000000        0x0 c:/program files/microchip/xc32/v4.30/bin/bin/../../lib/gcc/pic32c/8.3.1/../../../../pic32c/lib/thumb/v7e-m+fp/hard\libc-musl.a(__libc_start_main.o)
 .data          0x00000000        0x0 c:/program files/microchip/xc32/v4.30/bin/bin/../../lib/gcc/pic32c/8.3.1/../../../../pic32c/lib/thumb/v7e-m+fp/hard\libc-musl.a(__libc_start_main.o)
 .bss           0x00000000        0x0 c:/program files/microchip/xc32/v4.30/bin/bin/../../lib/gcc/pic32c/8.3.1/../../../../pic32c/lib/thumb/v7e-m+fp/hard\libc-musl.a(__libc_start_main.o)
 .xc_stack_usage
                0x00000000       0x34 c:/program files/microchip/xc32/v4.30/bin/bin/../../lib/gcc/pic32c/8.3.1/../../../../pic32c/lib/thumb/v7e-m+fp/hard\libc-musl.a(__libc_start_main.o)
 .xc_stack_usage.hdr
                0x00000000        0xe c:/program files/microchip/xc32/v4.30/bin/bin/../../lib/gcc/pic32c/8.3.1/../../../../pic32c/lib/thumb/v7e-m+fp/hard\libc-musl.a(__libc_start_main.o)
 .text          0x00000000        0x0 c:/program files/microchip/xc32/v4.30/bin/bin/../../lib/gcc/pic32c/8.3.1/../../../../pic32c/lib/thumb/v7e-m+fp/hard\libc-musl.a(libc.o)
 .data          0x00000000        0x0 c:/program files/microchip/xc32/v4.30/bin/bin/../../lib/gcc/pic32c/8.3.1/../../../../pic32c/lib/thumb/v7e-m+fp/hard\libc-musl.a(libc.o)
 .xc_stack_usage.hdr
                0x00000000        0xe c:/program files/microchip/xc32/v4.30/bin/bin/../../lib/gcc/pic32c/8.3.1/../../../../pic32c/lib/thumb/v7e-m+fp/hard\libc-musl.a(libc.o)
 .text          0x00000000        0x0 c:/program files/microchip/xc32/v4.30/bin/bin/../../lib/gcc/pic32c/8.3.1/../../../../pic32c/lib/thumb/v7e-m+fp/hard\libc-musl.a(malloc.o)
 .data          0x00000000        0x0 c:/program files/microchip/xc32/v4.30/bin/bin/../../lib/gcc/pic32c/8.3.1/../../../../pic32c/lib/thumb/v7e-m+fp/hard\libc-musl.a(malloc.o)
 .xc_stack_usage
                0x00000000       0xeb c:/program files/microchip/xc32/v4.30/bin/bin/../../lib/gcc/pic32c/8.3.1/../../../../pic32c/lib/thumb/v7e-m+fp/hard\libc-musl.a(malloc.o)
 .text.__malloc0
                0x00000000       0x26 c:/program files/microchip/xc32/v4.30/bin/bin/../../lib/gcc/pic32c/8.3.1/../../../../pic32c/lib/thumb/v7e-m+fp/hard\libc-musl.a(malloc.o)
 .text.realloc  0x00000000       0x90 c:/program files/microchip/xc32/v4.30/bin/bin/../../lib/gcc/pic32c/8.3.1/../../../../pic32c/lib/thumb/v7e-m+fp/hard\libc-musl.a(malloc.o)
 .xc_stack_usage.hdr
                0x00000000        0xe c:/program files/microchip/xc32/v4.30/bin/bin/../../lib/gcc/pic32c/8.3.1/../../../../pic32c/lib/thumb/v7e-m+fp/hard\libc-musl.a(malloc.o)
 .text          0x00000000        0x0 c:/program files/microchip/xc32/v4.30/bin/bin/../../lib/gcc/pic32c/8.3.1/../../../../pic32c/lib/thumb/v7e-m+fp/hard\libc-musl.a(expand_heap.o)
 .data          0x00000000        0x0 c:/program files/microchip/xc32/v4.30/bin/bin/../../lib/gcc/pic32c/8.3.1/../../../../pic32c/lib/thumb/v7e-m+fp/hard\libc-musl.a(expand_heap.o)
 .bss           0x00000000        0x0 c:/program files/microchip/xc32/v4.30/bin/bin/../../lib/gcc/pic32c/8.3.1/../../../../pic32c/lib/thumb/v7e-m+fp/hard\libc-musl.a(expand_heap.o)
 .xc_stack_usage
                0x00000000       0x1b c:/program files/microchip/xc32/v4.30/bin/bin/../../lib/gcc/pic32c/8.3.1/../../../../pic32c/lib/thumb/v7e-m+fp/hard\libc-musl.a(expand_heap.o)
 .xc_stack_usage.hdr
                0x00000000        0xe c:/program files/microchip/xc32/v4.30/bin/bin/../../lib/gcc/pic32c/8.3.1/../../../../pic32c/lib/thumb/v7e-m+fp/hard\libc-musl.a(expand_heap.o)
 .text          0x00000000        0x0 c:/program files/microchip/xc32/v4.30/bin/bin/../../lib/gcc/pic32c/8.3.1/../../../../pic32c/lib/thumb/v7e-m+fp/hard\libc-musl.a(stdin.o)
 .xc_stack_usage
                0x00000000       0x33 c:/program files/microchip/xc32/v4.30/bin/bin/../../lib/gcc/pic32c/8.3.1/../../../../pic32c/lib/thumb/v7e-m+fp/hard\libc-musl.a(stdin.o)
 .xc_stack_usage.hdr
                0x00000000        0xe c:/program files/microchip/xc32/v4.30/bin/bin/../../lib/gcc/pic32c/8.3.1/../../../../pic32c/lib/thumb/v7e-m+fp/hard\libc-musl.a(stdin.o)
 .text          0x00000000        0x0 c:/program files/microchip/xc32/v4.30/bin/bin/../../lib/gcc/pic32c/8.3.1/../../../../pic32c/lib/thumb/v7e-m+fp/hard\libc-musl.a(stdout.o)
 .xc_stack_usage
                0x00000000       0x51 c:/program files/microchip/xc32/v4.30/bin/bin/../../lib/gcc/pic32c/8.3.1/../../../../pic32c/lib/thumb/v7e-m+fp/hard\libc-musl.a(stdout.o)
 .text.__dummy  0x00000000        0x8 c:/program files/microchip/xc32/v4.30/bin/bin/../../lib/gcc/pic32c/8.3.1/../../../../pic32c/lib/thumb/v7e-m+fp/hard\libc-musl.a(stdout.o)
 .xc_stack_usage.hdr
                0x00000000        0xe c:/program files/microchip/xc32/v4.30/bin/bin/../../lib/gcc/pic32c/8.3.1/../../../../pic32c/lib/thumb/v7e-m+fp/hard\libc-musl.a(stdout.o)
 .text          0x00000000        0x0 c:/program files/microchip/xc32/v4.30/bin/bin/../../lib/gcc/pic32c/8.3.1/../../../../pic32c/lib/thumb/v7e-m+fp/hard\libc-musl.a(setbuf.o)
 .data          0x00000000        0x0 c:/program files/microchip/xc32/v4.30/bin/bin/../../lib/gcc/pic32c/8.3.1/../../../../pic32c/lib/thumb/v7e-m+fp/hard\libc-musl.a(setbuf.o)
 .bss           0x00000000        0x0 c:/program files/microchip/xc32/v4.30/bin/bin/../../lib/gcc/pic32c/8.3.1/../../../../pic32c/lib/thumb/v7e-m+fp/hard\libc-musl.a(setbuf.o)
 .xc_stack_usage
                0x00000000       0x14 c:/program files/microchip/xc32/v4.30/bin/bin/../../lib/gcc/pic32c/8.3.1/../../../../pic32c/lib/thumb/v7e-m+fp/hard\libc-musl.a(setbuf.o)
 .xc_stack_usage.hdr
                0x00000000        0xe c:/program files/microchip/xc32/v4.30/bin/bin/../../lib/gcc/pic32c/8.3.1/../../../../pic32c/lib/thumb/v7e-m+fp/hard\libc-musl.a(setbuf.o)
 .text          0x00000000        0x0 c:/program files/microchip/xc32/v4.30/bin/bin/../../lib/gcc/pic32c/8.3.1/../../../../pic32c/lib/thumb/v7e-m+fp/hard\libc-musl.a(memcmp.o)
 .data          0x00000000        0x0 c:/program files/microchip/xc32/v4.30/bin/bin/../../lib/gcc/pic32c/8.3.1/../../../../pic32c/lib/thumb/v7e-m+fp/hard\libc-musl.a(memcmp.o)
 .bss           0x00000000        0x0 c:/program files/microchip/xc32/v4.30/bin/bin/../../lib/gcc/pic32c/8.3.1/../../../../pic32c/lib/thumb/v7e-m+fp/hard\libc-musl.a(memcmp.o)
 .xc_stack_usage
                0x00000000       0x14 c:/program files/microchip/xc32/v4.30/bin/bin/../../lib/gcc/pic32c/8.3.1/../../../../pic32c/lib/thumb/v7e-m+fp/hard\libc-musl.a(memcmp.o)
 .xc_stack_usage.hdr
                0x00000000        0xe c:/program files/microchip/xc32/v4.30/bin/bin/../../lib/gcc/pic32c/8.3.1/../../../../pic32c/lib/thumb/v7e-m+fp/hard\libc-musl.a(memcmp.o)
 .text          0x00000000        0x0 c:/program files/microchip/xc32/v4.30/bin/bin/../../lib/gcc/pic32c/8.3.1/../../../../pic32c/lib/thumb/v7e-m+fp/hard\libc-musl.a(memcpy.o)
 .data          0x00000000        0x0 c:/program files/microchip/xc32/v4.30/bin/bin/../../lib/gcc/pic32c/8.3.1/../../../../pic32c/lib/thumb/v7e-m+fp/hard\libc-musl.a(memcpy.o)
 .bss           0x00000000        0x0 c:/program files/microchip/xc32/v4.30/bin/bin/../../lib/gcc/pic32c/8.3.1/../../../../pic32c/lib/thumb/v7e-m+fp/hard\libc-musl.a(memcpy.o)
 .xc_stack_usage
                0x00000000       0x14 c:/program files/microchip/xc32/v4.30/bin/bin/../../lib/gcc/pic32c/8.3.1/../../../../pic32c/lib/thumb/v7e-m+fp/hard\libc-musl.a(memcpy.o)
 .xc_stack_usage.hdr
                0x00000000        0xe c:/program files/microchip/xc32/v4.30/bin/bin/../../lib/gcc/pic32c/8.3.1/../../../../pic32c/lib/thumb/v7e-m+fp/hard\libc-musl.a(memcpy.o)
 .text          0x00000000        0x0 c:/program files/microchip/xc32/v4.30/bin/bin/../../lib/gcc/pic32c/8.3.1/../../../../pic32c/lib/thumb/v7e-m+fp/hard\libc-musl.a(memset.o)
 .data          0x00000000        0x0 c:/program files/microchip/xc32/v4.30/bin/bin/../../lib/gcc/pic32c/8.3.1/../../../../pic32c/lib/thumb/v7e-m+fp/hard\libc-musl.a(memset.o)
 .bss           0x00000000        0x0 c:/program files/microchip/xc32/v4.30/bin/bin/../../lib/gcc/pic32c/8.3.1/../../../../pic32c/lib/thumb/v7e-m+fp/hard\libc-musl.a(memset.o)
 .xc_stack_usage
                0x00000000       0x14 c:/program files/microchip/xc32/v4.30/bin/bin/../../lib/gcc/pic32c/8.3.1/../../../../pic32c/lib/thumb/v7e-m+fp/hard\libc-musl.a(memset.o)
 .xc_stack_usage.hdr
                0x00000000        0xe c:/program files/microchip/xc32/v4.30/bin/bin/../../lib/gcc/pic32c/8.3.1/../../../../pic32c/lib/thumb/v7e-m+fp/hard\libc-musl.a(memset.o)
 .text          0x00000000        0x0 c:/program files/microchip/xc32/v4.30/bin/bin/../../lib/gcc/pic32c/8.3.1/../../../../pic32c/lib/thumb/v7e-m+fp/hard\libc-musl.a(strlen.o)
 .data          0x00000000        0x0 c:/program files/microchip/xc32/v4.30/bin/bin/../../lib/gcc/pic32c/8.3.1/../../../../pic32c/lib/thumb/v7e-m+fp/hard\libc-musl.a(strlen.o)
 .bss           0x00000000        0x0 c:/program files/microchip/xc32/v4.30/bin/bin/../../lib/gcc/pic32c/8.3.1/../../../../pic32c/lib/thumb/v7e-m+fp/hard\libc-musl.a(strlen.o)
 .xc_stack_usage
                0x00000000       0x14 c:/program files/microchip/xc32/v4.30/bin/bin/../../lib/gcc/pic32c/8.3.1/../../../../pic32c/lib/thumb/v7e-m+fp/hard\libc-musl.a(strlen.o)
 .xc_stack_usage.hdr
                0x00000000        0xe c:/program files/microchip/xc32/v4.30/bin/bin/../../lib/gcc/pic32c/8.3.1/../../../../pic32c/lib/thumb/v7e-m+fp/hard\libc-musl.a(strlen.o)
 .text          0x00000000        0x0 c:/program files/microchip/xc32/v4.30/bin/bin/../../lib/gcc/pic32c/8.3.1/../../../../pic32c/lib/thumb/v7e-m+fp/hard\libc-musl.a(strchr.o)
 .data          0x00000000        0x0 c:/program files/microchip/xc32/v4.30/bin/bin/../../lib/gcc/pic32c/8.3.1/../../../../pic32c/lib/thumb/v7e-m+fp/hard\libc-musl.a(strchr.o)
 .bss           0x00000000        0x0 c:/program files/microchip/xc32/v4.30/bin/bin/../../lib/gcc/pic32c/8.3.1/../../../../pic32c/lib/thumb/v7e-m+fp/hard\libc-musl.a(strchr.o)
 .xc_stack_usage
                0x00000000       0x14 c:/program files/microchip/xc32/v4.30/bin/bin/../../lib/gcc/pic32c/8.3.1/../../../../pic32c/lib/thumb/v7e-m+fp/hard\libc-musl.a(strchr.o)
 .xc_stack_usage.hdr
                0x00000000        0xe c:/program files/microchip/xc32/v4.30/bin/bin/../../lib/gcc/pic32c/8.3.1/../../../../pic32c/lib/thumb/v7e-m+fp/hard\libc-musl.a(strchr.o)
 .text          0x00000000        0x0 c:/program files/microchip/xc32/v4.30/bin/bin/../../lib/gcc/pic32c/8.3.1/../../../../pic32c/lib/thumb/v7e-m+fp/hard\libc-musl.a(strchrnul.o)
 .data          0x00000000        0x0 c:/program files/microchip/xc32/v4.30/bin/bin/../../lib/gcc/pic32c/8.3.1/../../../../pic32c/lib/thumb/v7e-m+fp/hard\libc-musl.a(strchrnul.o)
 .bss           0x00000000        0x0 c:/program files/microchip/xc32/v4.30/bin/bin/../../lib/gcc/pic32c/8.3.1/../../../../pic32c/lib/thumb/v7e-m+fp/hard\libc-musl.a(strchrnul.o)
 .xc_stack_usage
                0x00000000       0x19 c:/program files/microchip/xc32/v4.30/bin/bin/../../lib/gcc/pic32c/8.3.1/../../../../pic32c/lib/thumb/v7e-m+fp/hard\libc-musl.a(strchrnul.o)
 .xc_stack_usage.hdr
                0x00000000        0xe c:/program files/microchip/xc32/v4.30/bin/bin/../../lib/gcc/pic32c/8.3.1/../../../../pic32c/lib/thumb/v7e-m+fp/hard\libc-musl.a(strchrnul.o)
 .text          0x00000000        0x0 c:/program files/microchip/xc32/v4.30/bin/bin/../../lib/gcc/pic32c/8.3.1/../../../../pic32c/lib/thumb/v7e-m+fp/hard\libc-musl.a(strcmp.o)
 .data          0x00000000        0x0 c:/program files/microchip/xc32/v4.30/bin/bin/../../lib/gcc/pic32c/8.3.1/../../../../pic32c/lib/thumb/v7e-m+fp/hard\libc-musl.a(strcmp.o)
 .bss           0x00000000        0x0 c:/program files/microchip/xc32/v4.30/bin/bin/../../lib/gcc/pic32c/8.3.1/../../../../pic32c/lib/thumb/v7e-m+fp/hard\libc-musl.a(strcmp.o)
 .xc_stack_usage
                0x00000000       0x14 c:/program files/microchip/xc32/v4.30/bin/bin/../../lib/gcc/pic32c/8.3.1/../../../../pic32c/lib/thumb/v7e-m+fp/hard\libc-musl.a(strcmp.o)
 .text.strcmp   0x00000000       0x16 c:/program files/microchip/xc32/v4.30/bin/bin/../../lib/gcc/pic32c/8.3.1/../../../../pic32c/lib/thumb/v7e-m+fp/hard\libc-musl.a(strcmp.o)
 .xc_stack_usage.hdr
                0x00000000        0xe c:/program files/microchip/xc32/v4.30/bin/bin/../../lib/gcc/pic32c/8.3.1/../../../../pic32c/lib/thumb/v7e-m+fp/hard\libc-musl.a(strcmp.o)
 .debug_info    0x00000000      0x289 c:/program files/microchip/xc32/v4.30/bin/bin/../../lib/gcc/pic32c/8.3.1/../../../../pic32c/lib/thumb/v7e-m+fp/hard\libc-musl.a(strcmp.o)
 .debug_abbrev  0x00000000       0x63 c:/program files/microchip/xc32/v4.30/bin/bin/../../lib/gcc/pic32c/8.3.1/../../../../pic32c/lib/thumb/v7e-m+fp/hard\libc-musl.a(strcmp.o)
 .debug_loc     0x00000000       0x96 c:/program files/microchip/xc32/v4.30/bin/bin/../../lib/gcc/pic32c/8.3.1/../../../../pic32c/lib/thumb/v7e-m+fp/hard\libc-musl.a(strcmp.o)
 .debug_aranges
                0x00000000       0x20 c:/program files/microchip/xc32/v4.30/bin/bin/../../lib/gcc/pic32c/8.3.1/../../../../pic32c/lib/thumb/v7e-m+fp/hard\libc-musl.a(strcmp.o)
 .debug_ranges  0x00000000       0x10 c:/program files/microchip/xc32/v4.30/bin/bin/../../lib/gcc/pic32c/8.3.1/../../../../pic32c/lib/thumb/v7e-m+fp/hard\libc-musl.a(strcmp.o)
 .debug_line    0x00000000       0xc1 c:/program files/microchip/xc32/v4.30/bin/bin/../../lib/gcc/pic32c/8.3.1/../../../../pic32c/lib/thumb/v7e-m+fp/hard\libc-musl.a(strcmp.o)
 .debug_str     0x00000000        0x0 c:/program files/microchip/xc32/v4.30/bin/bin/../../lib/gcc/pic32c/8.3.1/../../../../pic32c/lib/thumb/v7e-m+fp/hard\libc-musl.a(strcmp.o)
 .comment       0x00000000       0x2c c:/program files/microchip/xc32/v4.30/bin/bin/../../lib/gcc/pic32c/8.3.1/../../../../pic32c/lib/thumb/v7e-m+fp/hard\libc-musl.a(strcmp.o)
 .note.GNU-stack
                0x00000000        0x0 c:/program files/microchip/xc32/v4.30/bin/bin/../../lib/gcc/pic32c/8.3.1/../../../../pic32c/lib/thumb/v7e-m+fp/hard\libc-musl.a(strcmp.o)
 .debug_frame   0x00000000       0x28 c:/program files/microchip/xc32/v4.30/bin/bin/../../lib/gcc/pic32c/8.3.1/../../../../pic32c/lib/thumb/v7e-m+fp/hard\libc-musl.a(strcmp.o)
 .ARM.attributes
                0x00000000       0x36 c:/program files/microchip/xc32/v4.30/bin/bin/../../lib/gcc/pic32c/8.3.1/../../../../pic32c/lib/thumb/v7e-m+fp/hard\libc-musl.a(strcmp.o)
 .text          0x00000000        0x0 c:/program files/microchip/xc32/v4.30/bin/bin/../../lib/gcc/pic32c/8.3.1/../../../../pic32c/lib/thumb/v7e-m+fp/hard\libc-musl.a(strcpy.o)
 .data          0x00000000        0x0 c:/program files/microchip/xc32/v4.30/bin/bin/../../lib/gcc/pic32c/8.3.1/../../../../pic32c/lib/thumb/v7e-m+fp/hard\libc-musl.a(strcpy.o)
 .bss           0x00000000        0x0 c:/program files/microchip/xc32/v4.30/bin/bin/../../lib/gcc/pic32c/8.3.1/../../../../pic32c/lib/thumb/v7e-m+fp/hard\libc-musl.a(strcpy.o)
 .xc_stack_usage
                0x00000000       0x14 c:/program files/microchip/xc32/v4.30/bin/bin/../../lib/gcc/pic32c/8.3.1/../../../../pic32c/lib/thumb/v7e-m+fp/hard\libc-musl.a(strcpy.o)
 .text.strcpy   0x00000000        0xc c:/program files/microchip/xc32/v4.30/bin/bin/../../lib/gcc/pic32c/8.3.1/../../../../pic32c/lib/thumb/v7e-m+fp/hard\libc-musl.a(strcpy.o)
 .xc_stack_usage.hdr
                0x00000000        0xe c:/program files/microchip/xc32/v4.30/bin/bin/../../lib/gcc/pic32c/8.3.1/../../../../pic32c/lib/thumb/v7e-m+fp/hard\libc-musl.a(strcpy.o)
 .debug_info    0x00000000      0x2b2 c:/program files/microchip/xc32/v4.30/bin/bin/../../lib/gcc/pic32c/8.3.1/../../../../pic32c/lib/thumb/v7e-m+fp/hard\libc-musl.a(strcpy.o)
 .debug_abbrev  0x00000000       0x8e c:/program files/microchip/xc32/v4.30/bin/bin/../../lib/gcc/pic32c/8.3.1/../../../../pic32c/lib/thumb/v7e-m+fp/hard\libc-musl.a(strcpy.o)
 .debug_loc     0x00000000       0x67 c:/program files/microchip/xc32/v4.30/bin/bin/../../lib/gcc/pic32c/8.3.1/../../../../pic32c/lib/thumb/v7e-m+fp/hard\libc-musl.a(strcpy.o)
 .debug_aranges
                0x00000000       0x20 c:/program files/microchip/xc32/v4.30/bin/bin/../../lib/gcc/pic32c/8.3.1/../../../../pic32c/lib/thumb/v7e-m+fp/hard\libc-musl.a(strcpy.o)
 .debug_ranges  0x00000000       0x10 c:/program files/microchip/xc32/v4.30/bin/bin/../../lib/gcc/pic32c/8.3.1/../../../../pic32c/lib/thumb/v7e-m+fp/hard\libc-musl.a(strcpy.o)
 .debug_line    0x00000000       0xb4 c:/program files/microchip/xc32/v4.30/bin/bin/../../lib/gcc/pic32c/8.3.1/../../../../pic32c/lib/thumb/v7e-m+fp/hard\libc-musl.a(strcpy.o)
 .debug_str     0x00000000        0x9 c:/program files/microchip/xc32/v4.30/bin/bin/../../lib/gcc/pic32c/8.3.1/../../../../pic32c/lib/thumb/v7e-m+fp/hard\libc-musl.a(strcpy.o)
 .comment       0x00000000       0x2c c:/program files/microchip/xc32/v4.30/bin/bin/../../lib/gcc/pic32c/8.3.1/../../../../pic32c/lib/thumb/v7e-m+fp/hard\libc-musl.a(strcpy.o)
 .note.GNU-stack
                0x00000000        0x0 c:/program files/microchip/xc32/v4.30/bin/bin/../../lib/gcc/pic32c/8.3.1/../../../../pic32c/lib/thumb/v7e-m+fp/hard\libc-musl.a(strcpy.o)
 .debug_frame   0x00000000       0x28 c:/program files/microchip/xc32/v4.30/bin/bin/../../lib/gcc/pic32c/8.3.1/../../../../pic32c/lib/thumb/v7e-m+fp/hard\libc-musl.a(strcpy.o)
 .ARM.attributes
                0x00000000       0x36 c:/program files/microchip/xc32/v4.30/bin/bin/../../lib/gcc/pic32c/8.3.1/../../../../pic32c/lib/thumb/v7e-m+fp/hard\libc-musl.a(strcpy.o)
 .text          0x00000000        0x0 c:/program files/microchip/xc32/v4.30/bin/bin/../../lib/gcc/pic32c/8.3.1/../../../../pic32c/lib/thumb/v7e-m+fp/hard\libc-musl.a(strncmp.o)
 .data          0x00000000        0x0 c:/program files/microchip/xc32/v4.30/bin/bin/../../lib/gcc/pic32c/8.3.1/../../../../pic32c/lib/thumb/v7e-m+fp/hard\libc-musl.a(strncmp.o)
 .bss           0x00000000        0x0 c:/program files/microchip/xc32/v4.30/bin/bin/../../lib/gcc/pic32c/8.3.1/../../../../pic32c/lib/thumb/v7e-m+fp/hard\libc-musl.a(strncmp.o)
 .xc_stack_usage
                0x00000000       0x15 c:/program files/microchip/xc32/v4.30/bin/bin/../../lib/gcc/pic32c/8.3.1/../../../../pic32c/lib/thumb/v7e-m+fp/hard\libc-musl.a(strncmp.o)
 .text.strncmp  0x00000000       0x28 c:/program files/microchip/xc32/v4.30/bin/bin/../../lib/gcc/pic32c/8.3.1/../../../../pic32c/lib/thumb/v7e-m+fp/hard\libc-musl.a(strncmp.o)
 .xc_stack_usage.hdr
                0x00000000        0xe c:/program files/microchip/xc32/v4.30/bin/bin/../../lib/gcc/pic32c/8.3.1/../../../../pic32c/lib/thumb/v7e-m+fp/hard\libc-musl.a(strncmp.o)
 .debug_info    0x00000000      0x2ee c:/program files/microchip/xc32/v4.30/bin/bin/../../lib/gcc/pic32c/8.3.1/../../../../pic32c/lib/thumb/v7e-m+fp/hard\libc-musl.a(strncmp.o)
 .debug_abbrev  0x00000000       0x86 c:/program files/microchip/xc32/v4.30/bin/bin/../../lib/gcc/pic32c/8.3.1/../../../../pic32c/lib/thumb/v7e-m+fp/hard\libc-musl.a(strncmp.o)
 .debug_loc     0x00000000      0x1b1 c:/program files/microchip/xc32/v4.30/bin/bin/../../lib/gcc/pic32c/8.3.1/../../../../pic32c/lib/thumb/v7e-m+fp/hard\libc-musl.a(strncmp.o)
 .debug_aranges
                0x00000000       0x20 c:/program files/microchip/xc32/v4.30/bin/bin/../../lib/gcc/pic32c/8.3.1/../../../../pic32c/lib/thumb/v7e-m+fp/hard\libc-musl.a(strncmp.o)
 .debug_ranges  0x00000000       0x10 c:/program files/microchip/xc32/v4.30/bin/bin/../../lib/gcc/pic32c/8.3.1/../../../../pic32c/lib/thumb/v7e-m+fp/hard\libc-musl.a(strncmp.o)
 .debug_line    0x00000000       0xf2 c:/program files/microchip/xc32/v4.30/bin/bin/../../lib/gcc/pic32c/8.3.1/../../../../pic32c/lib/thumb/v7e-m+fp/hard\libc-musl.a(strncmp.o)
 .debug_str     0x00000000        0x0 c:/program files/microchip/xc32/v4.30/bin/bin/../../lib/gcc/pic32c/8.3.1/../../../../pic32c/lib/thumb/v7e-m+fp/hard\libc-musl.a(strncmp.o)
 .comment       0x00000000       0x2c c:/program files/microchip/xc32/v4.30/bin/bin/../../lib/gcc/pic32c/8.3.1/../../../../pic32c/lib/thumb/v7e-m+fp/hard\libc-musl.a(strncmp.o)
 .note.GNU-stack
                0x00000000        0x0 c:/program files/microchip/xc32/v4.30/bin/bin/../../lib/gcc/pic32c/8.3.1/../../../../pic32c/lib/thumb/v7e-m+fp/hard\libc-musl.a(strncmp.o)
 .debug_frame   0x00000000       0x2c c:/program files/microchip/xc32/v4.30/bin/bin/../../lib/gcc/pic32c/8.3.1/../../../../pic32c/lib/thumb/v7e-m+fp/hard\libc-musl.a(strncmp.o)
 .ARM.attributes
                0x00000000       0x36 c:/program files/microchip/xc32/v4.30/bin/bin/../../lib/gcc/pic32c/8.3.1/../../../../pic32c/lib/thumb/v7e-m+fp/hard\libc-musl.a(strncmp.o)
 .text          0x00000000        0x0 c:/program files/microchip/xc32/v4.30/bin/bin/../../lib/gcc/pic32c/8.3.1/../../../../pic32c/lib/thumb/v7e-m+fp/hard\libc-musl.a(__environ.o)
 .data          0x00000000        0x0 c:/program files/microchip/xc32/v4.30/bin/bin/../../lib/gcc/pic32c/8.3.1/../../../../pic32c/lib/thumb/v7e-m+fp/hard\libc-musl.a(__environ.o)
 .xc_stack_usage.hdr
                0x00000000        0xe c:/program files/microchip/xc32/v4.30/bin/bin/../../lib/gcc/pic32c/8.3.1/../../../../pic32c/lib/thumb/v7e-m+fp/hard\libc-musl.a(__environ.o)
 .text          0x00000000        0x0 c:/program files/microchip/xc32/v4.30/bin/bin/../../lib/gcc/pic32c/8.3.1/../../../../pic32c/lib/thumb/v7e-m+fp/hard\libc-musl.a(__errno_location.o)
 .data          0x00000000        0x0 c:/program files/microchip/xc32/v4.30/bin/bin/../../lib/gcc/pic32c/8.3.1/../../../../pic32c/lib/thumb/v7e-m+fp/hard\libc-musl.a(__errno_location.o)
 .xc_stack_usage.hdr
                0x00000000        0xe c:/program files/microchip/xc32/v4.30/bin/bin/../../lib/gcc/pic32c/8.3.1/../../../../pic32c/lib/thumb/v7e-m+fp/hard\libc-musl.a(__errno_location.o)
 .text          0x00000000        0x0 c:/program files/microchip/xc32/v4.30/bin/bin/../../lib/gcc/pic32c/8.3.1/../../../../pic32c/lib/thumb/v7e-m+fp/hard\libc-musl.a(__io_init_needed.o)
 .data          0x00000000        0x0 c:/program files/microchip/xc32/v4.30/bin/bin/../../lib/gcc/pic32c/8.3.1/../../../../pic32c/lib/thumb/v7e-m+fp/hard\libc-musl.a(__io_init_needed.o)
 .bss           0x00000000        0x0 c:/program files/microchip/xc32/v4.30/bin/bin/../../lib/gcc/pic32c/8.3.1/../../../../pic32c/lib/thumb/v7e-m+fp/hard\libc-musl.a(__io_init_needed.o)
 .xc_stack_usage
                0x00000000       0x40 c:/program files/microchip/xc32/v4.30/bin/bin/../../lib/gcc/pic32c/8.3.1/../../../../pic32c/lib/thumb/v7e-m+fp/hard\libc-musl.a(__io_init_needed.o)
 .xc_stack_usage.hdr
                0x00000000        0xe c:/program files/microchip/xc32/v4.30/bin/bin/../../lib/gcc/pic32c/8.3.1/../../../../pic32c/lib/thumb/v7e-m+fp/hard\libc-musl.a(__io_init_needed.o)
 .debug_info    0x00000000      0x366 c:/program files/microchip/xc32/v4.30/bin/bin/../../lib/gcc/pic32c/8.3.1/../../../../pic32c/lib/thumb/v7e-m+fp/hard\libc-musl.a(__io_init_needed.o)
 .debug_abbrev  0x00000000       0x79 c:/program files/microchip/xc32/v4.30/bin/bin/../../lib/gcc/pic32c/8.3.1/../../../../pic32c/lib/thumb/v7e-m+fp/hard\libc-musl.a(__io_init_needed.o)
 .debug_aranges
                0x00000000       0x28 c:/program files/microchip/xc32/v4.30/bin/bin/../../lib/gcc/pic32c/8.3.1/../../../../pic32c/lib/thumb/v7e-m+fp/hard\libc-musl.a(__io_init_needed.o)
 .debug_ranges  0x00000000       0x18 c:/program files/microchip/xc32/v4.30/bin/bin/../../lib/gcc/pic32c/8.3.1/../../../../pic32c/lib/thumb/v7e-m+fp/hard\libc-musl.a(__io_init_needed.o)
 .debug_line    0x00000000      0x139 c:/program files/microchip/xc32/v4.30/bin/bin/../../lib/gcc/pic32c/8.3.1/../../../../pic32c/lib/thumb/v7e-m+fp/hard\libc-musl.a(__io_init_needed.o)
 .debug_str     0x00000000       0x25 c:/program files/microchip/xc32/v4.30/bin/bin/../../lib/gcc/pic32c/8.3.1/../../../../pic32c/lib/thumb/v7e-m+fp/hard\libc-musl.a(__io_init_needed.o)
 .comment       0x00000000       0x2c c:/program files/microchip/xc32/v4.30/bin/bin/../../lib/gcc/pic32c/8.3.1/../../../../pic32c/lib/thumb/v7e-m+fp/hard\libc-musl.a(__io_init_needed.o)
 .note.GNU-stack
                0x00000000        0x0 c:/program files/microchip/xc32/v4.30/bin/bin/../../lib/gcc/pic32c/8.3.1/../../../../pic32c/lib/thumb/v7e-m+fp/hard\libc-musl.a(__io_init_needed.o)
 .debug_frame   0x00000000       0x30 c:/program files/microchip/xc32/v4.30/bin/bin/../../lib/gcc/pic32c/8.3.1/../../../../pic32c/lib/thumb/v7e-m+fp/hard\libc-musl.a(__io_init_needed.o)
 .ARM.attributes
                0x00000000       0x36 c:/program files/microchip/xc32/v4.30/bin/bin/../../lib/gcc/pic32c/8.3.1/../../../../pic32c/lib/thumb/v7e-m+fp/hard\libc-musl.a(__io_init_needed.o)
 .text          0x00000000        0x0 c:/program files/microchip/xc32/v4.30/bin/bin/../../lib/gcc/pic32c/8.3.1/../../../../pic32c/lib/thumb/v7e-m+fp/hard\libc-musl.a(__io_rw_needed.o)
 .data          0x00000000        0x0 c:/program files/microchip/xc32/v4.30/bin/bin/../../lib/gcc/pic32c/8.3.1/../../../../pic32c/lib/thumb/v7e-m+fp/hard\libc-musl.a(__io_rw_needed.o)
 .bss           0x00000000        0x0 c:/program files/microchip/xc32/v4.30/bin/bin/../../lib/gcc/pic32c/8.3.1/../../../../pic32c/lib/thumb/v7e-m+fp/hard\libc-musl.a(__io_rw_needed.o)
 .xc_stack_usage
                0x00000000       0x1c c:/program files/microchip/xc32/v4.30/bin/bin/../../lib/gcc/pic32c/8.3.1/../../../../pic32c/lib/thumb/v7e-m+fp/hard\libc-musl.a(__io_rw_needed.o)
 .xc_stack_usage.hdr
                0x00000000        0xe c:/program files/microchip/xc32/v4.30/bin/bin/../../lib/gcc/pic32c/8.3.1/../../../../pic32c/lib/thumb/v7e-m+fp/hard\libc-musl.a(__io_rw_needed.o)
 .debug_info    0x00000000      0x365 c:/program files/microchip/xc32/v4.30/bin/bin/../../lib/gcc/pic32c/8.3.1/../../../../pic32c/lib/thumb/v7e-m+fp/hard\libc-musl.a(__io_rw_needed.o)
 .debug_abbrev  0x00000000       0x6a c:/program files/microchip/xc32/v4.30/bin/bin/../../lib/gcc/pic32c/8.3.1/../../../../pic32c/lib/thumb/v7e-m+fp/hard\libc-musl.a(__io_rw_needed.o)
 .debug_loc     0x00000000       0x2c c:/program files/microchip/xc32/v4.30/bin/bin/../../lib/gcc/pic32c/8.3.1/../../../../pic32c/lib/thumb/v7e-m+fp/hard\libc-musl.a(__io_rw_needed.o)
 .debug_aranges
                0x00000000       0x20 c:/program files/microchip/xc32/v4.30/bin/bin/../../lib/gcc/pic32c/8.3.1/../../../../pic32c/lib/thumb/v7e-m+fp/hard\libc-musl.a(__io_rw_needed.o)
 .debug_ranges  0x00000000       0x10 c:/program files/microchip/xc32/v4.30/bin/bin/../../lib/gcc/pic32c/8.3.1/../../../../pic32c/lib/thumb/v7e-m+fp/hard\libc-musl.a(__io_rw_needed.o)
 .debug_line    0x00000000      0x13e c:/program files/microchip/xc32/v4.30/bin/bin/../../lib/gcc/pic32c/8.3.1/../../../../pic32c/lib/thumb/v7e-m+fp/hard\libc-musl.a(__io_rw_needed.o)
 .debug_str     0x00000000       0x4d c:/program files/microchip/xc32/v4.30/bin/bin/../../lib/gcc/pic32c/8.3.1/../../../../pic32c/lib/thumb/v7e-m+fp/hard\libc-musl.a(__io_rw_needed.o)
 .comment       0x00000000       0x2c c:/program files/microchip/xc32/v4.30/bin/bin/../../lib/gcc/pic32c/8.3.1/../../../../pic32c/lib/thumb/v7e-m+fp/hard\libc-musl.a(__io_rw_needed.o)
 .note.GNU-stack
                0x00000000        0x0 c:/program files/microchip/xc32/v4.30/bin/bin/../../lib/gcc/pic32c/8.3.1/../../../../pic32c/lib/thumb/v7e-m+fp/hard\libc-musl.a(__io_rw_needed.o)
 .debug_frame   0x00000000       0x2c c:/program files/microchip/xc32/v4.30/bin/bin/../../lib/gcc/pic32c/8.3.1/../../../../pic32c/lib/thumb/v7e-m+fp/hard\libc-musl.a(__io_rw_needed.o)
 .ARM.attributes
                0x00000000       0x36 c:/program files/microchip/xc32/v4.30/bin/bin/../../lib/gcc/pic32c/8.3.1/../../../../pic32c/lib/thumb/v7e-m+fp/hard\libc-musl.a(__io_rw_needed.o)
 .text          0x00000000        0x0 c:/program files/microchip/xc32/v4.30/bin/bin/../../lib/gcc/pic32c/8.3.1/../../../../pic32c/lib/thumb/v7e-m+fp/hard\libc-musl.a(__stdio_read.o)
 .data          0x00000000        0x0 c:/program files/microchip/xc32/v4.30/bin/bin/../../lib/gcc/pic32c/8.3.1/../../../../pic32c/lib/thumb/v7e-m+fp/hard\libc-musl.a(__stdio_read.o)
 .bss           0x00000000        0x0 c:/program files/microchip/xc32/v4.30/bin/bin/../../lib/gcc/pic32c/8.3.1/../../../../pic32c/lib/thumb/v7e-m+fp/hard\libc-musl.a(__stdio_read.o)
 .xc_stack_usage
                0x00000000       0x1a c:/program files/microchip/xc32/v4.30/bin/bin/../../lib/gcc/pic32c/8.3.1/../../../../pic32c/lib/thumb/v7e-m+fp/hard\libc-musl.a(__stdio_read.o)
 .xc_stack_usage.hdr
                0x00000000        0xe c:/program files/microchip/xc32/v4.30/bin/bin/../../lib/gcc/pic32c/8.3.1/../../../../pic32c/lib/thumb/v7e-m+fp/hard\libc-musl.a(__stdio_read.o)
 .text          0x00000000        0x0 c:/program files/microchip/xc32/v4.30/bin/bin/../../lib/gcc/pic32c/8.3.1/../../../../pic32c/lib/thumb/v7e-m+fp/hard\libc-musl.a(__towrite_rw.o)
 .data          0x00000000        0x0 c:/program files/microchip/xc32/v4.30/bin/bin/../../lib/gcc/pic32c/8.3.1/../../../../pic32c/lib/thumb/v7e-m+fp/hard\libc-musl.a(__towrite_rw.o)
 .bss           0x00000000        0x0 c:/program files/microchip/xc32/v4.30/bin/bin/../../lib/gcc/pic32c/8.3.1/../../../../pic32c/lib/thumb/v7e-m+fp/hard\libc-musl.a(__towrite_rw.o)
 .xc_stack_usage
                0x00000000       0x1a c:/program files/microchip/xc32/v4.30/bin/bin/../../lib/gcc/pic32c/8.3.1/../../../../pic32c/lib/thumb/v7e-m+fp/hard\libc-musl.a(__towrite_rw.o)
 .xc_stack_usage.hdr
                0x00000000        0xe c:/program files/microchip/xc32/v4.30/bin/bin/../../lib/gcc/pic32c/8.3.1/../../../../pic32c/lib/thumb/v7e-m+fp/hard\libc-musl.a(__towrite_rw.o)
 .text          0x00000000        0x0 c:/program files/microchip/xc32/v4.30/bin/bin/../../lib/gcc/pic32c/8.3.1/../../../../pic32c/lib/thumb/v7e-m+fp/hard\libc-musl.a(setvbuf.o)
 .data          0x00000000        0x0 c:/program files/microchip/xc32/v4.30/bin/bin/../../lib/gcc/pic32c/8.3.1/../../../../pic32c/lib/thumb/v7e-m+fp/hard\libc-musl.a(setvbuf.o)
 .bss           0x00000000        0x0 c:/program files/microchip/xc32/v4.30/bin/bin/../../lib/gcc/pic32c/8.3.1/../../../../pic32c/lib/thumb/v7e-m+fp/hard\libc-musl.a(setvbuf.o)
 .xc_stack_usage
                0x00000000       0x36 c:/program files/microchip/xc32/v4.30/bin/bin/../../lib/gcc/pic32c/8.3.1/../../../../pic32c/lib/thumb/v7e-m+fp/hard\libc-musl.a(setvbuf.o)
 .xc_stack_usage.hdr
                0x00000000        0xe c:/program files/microchip/xc32/v4.30/bin/bin/../../lib/gcc/pic32c/8.3.1/../../../../pic32c/lib/thumb/v7e-m+fp/hard\libc-musl.a(setvbuf.o)
 .text          0x00000000        0x0 c:/program files/microchip/xc32/v4.30/bin/bin/../../lib/gcc/pic32c/8.3.1/../../../../pic32c/lib/thumb/v7e-m+fp/hard\libc-musl.a(stpcpy.o)
 .data          0x00000000        0x0 c:/program files/microchip/xc32/v4.30/bin/bin/../../lib/gcc/pic32c/8.3.1/../../../../pic32c/lib/thumb/v7e-m+fp/hard\libc-musl.a(stpcpy.o)
 .bss           0x00000000        0x0 c:/program files/microchip/xc32/v4.30/bin/bin/../../lib/gcc/pic32c/8.3.1/../../../../pic32c/lib/thumb/v7e-m+fp/hard\libc-musl.a(stpcpy.o)
 .xc_stack_usage
                0x00000000       0x14 c:/program files/microchip/xc32/v4.30/bin/bin/../../lib/gcc/pic32c/8.3.1/../../../../pic32c/lib/thumb/v7e-m+fp/hard\libc-musl.a(stpcpy.o)
 .text.stpcpy   0x00000000       0x12 c:/program files/microchip/xc32/v4.30/bin/bin/../../lib/gcc/pic32c/8.3.1/../../../../pic32c/lib/thumb/v7e-m+fp/hard\libc-musl.a(stpcpy.o)
 .xc_stack_usage.hdr
                0x00000000        0xe c:/program files/microchip/xc32/v4.30/bin/bin/../../lib/gcc/pic32c/8.3.1/../../../../pic32c/lib/thumb/v7e-m+fp/hard\libc-musl.a(stpcpy.o)
 .debug_info    0x00000000      0x2b6 c:/program files/microchip/xc32/v4.30/bin/bin/../../lib/gcc/pic32c/8.3.1/../../../../pic32c/lib/thumb/v7e-m+fp/hard\libc-musl.a(stpcpy.o)
 .debug_abbrev  0x00000000       0x63 c:/program files/microchip/xc32/v4.30/bin/bin/../../lib/gcc/pic32c/8.3.1/../../../../pic32c/lib/thumb/v7e-m+fp/hard\libc-musl.a(stpcpy.o)
 .debug_loc     0x00000000       0x60 c:/program files/microchip/xc32/v4.30/bin/bin/../../lib/gcc/pic32c/8.3.1/../../../../pic32c/lib/thumb/v7e-m+fp/hard\libc-musl.a(stpcpy.o)
 .debug_aranges
                0x00000000       0x20 c:/program files/microchip/xc32/v4.30/bin/bin/../../lib/gcc/pic32c/8.3.1/../../../../pic32c/lib/thumb/v7e-m+fp/hard\libc-musl.a(stpcpy.o)
 .debug_ranges  0x00000000       0x10 c:/program files/microchip/xc32/v4.30/bin/bin/../../lib/gcc/pic32c/8.3.1/../../../../pic32c/lib/thumb/v7e-m+fp/hard\libc-musl.a(stpcpy.o)
 .debug_line    0x00000000       0xc8 c:/program files/microchip/xc32/v4.30/bin/bin/../../lib/gcc/pic32c/8.3.1/../../../../pic32c/lib/thumb/v7e-m+fp/hard\libc-musl.a(stpcpy.o)
 .debug_str     0x00000000        0x0 c:/program files/microchip/xc32/v4.30/bin/bin/../../lib/gcc/pic32c/8.3.1/../../../../pic32c/lib/thumb/v7e-m+fp/hard\libc-musl.a(stpcpy.o)
 .comment       0x00000000       0x2c c:/program files/microchip/xc32/v4.30/bin/bin/../../lib/gcc/pic32c/8.3.1/../../../../pic32c/lib/thumb/v7e-m+fp/hard\libc-musl.a(stpcpy.o)
 .note.GNU-stack
                0x00000000        0x0 c:/program files/microchip/xc32/v4.30/bin/bin/../../lib/gcc/pic32c/8.3.1/../../../../pic32c/lib/thumb/v7e-m+fp/hard\libc-musl.a(stpcpy.o)
 .debug_frame   0x00000000       0x20 c:/program files/microchip/xc32/v4.30/bin/bin/../../lib/gcc/pic32c/8.3.1/../../../../pic32c/lib/thumb/v7e-m+fp/hard\libc-musl.a(stpcpy.o)
 .ARM.attributes
                0x00000000       0x36 c:/program files/microchip/xc32/v4.30/bin/bin/../../lib/gcc/pic32c/8.3.1/../../../../pic32c/lib/thumb/v7e-m+fp/hard\libc-musl.a(stpcpy.o)
 .text          0x00000000        0x0 c:/program files/microchip/xc32/v4.30/bin/bin/../../lib/gcc/pic32c/8.3.1/../../../../pic32c/lib/thumb/v7e-m+fp/hard\libc-musl.a(readv.o)
 .data          0x00000000        0x0 c:/program files/microchip/xc32/v4.30/bin/bin/../../lib/gcc/pic32c/8.3.1/../../../../pic32c/lib/thumb/v7e-m+fp/hard\libc-musl.a(readv.o)
 .bss           0x00000000        0x0 c:/program files/microchip/xc32/v4.30/bin/bin/../../lib/gcc/pic32c/8.3.1/../../../../pic32c/lib/thumb/v7e-m+fp/hard\libc-musl.a(readv.o)
 .xc_stack_usage
                0x00000000       0x15 c:/program files/microchip/xc32/v4.30/bin/bin/../../lib/gcc/pic32c/8.3.1/../../../../pic32c/lib/thumb/v7e-m+fp/hard\libc-musl.a(readv.o)
 .xc_stack_usage.hdr
                0x00000000        0xe c:/program files/microchip/xc32/v4.30/bin/bin/../../lib/gcc/pic32c/8.3.1/../../../../pic32c/lib/thumb/v7e-m+fp/hard\libc-musl.a(readv.o)
 .text          0x00000000        0x0 c:/program files/microchip/xc32/v4.30/bin/bin/../../lib/gcc/pic32c/8.3.1/../../../../pic32c/lib/thumb/v7e-m+fp/hard\libc-musl.a(__fopen_rw.o)
 .data          0x00000000        0x0 c:/program files/microchip/xc32/v4.30/bin/bin/../../lib/gcc/pic32c/8.3.1/../../../../pic32c/lib/thumb/v7e-m+fp/hard\libc-musl.a(__fopen_rw.o)
 .bss           0x00000000        0x0 c:/program files/microchip/xc32/v4.30/bin/bin/../../lib/gcc/pic32c/8.3.1/../../../../pic32c/lib/thumb/v7e-m+fp/hard\libc-musl.a(__fopen_rw.o)
 .xc_stack_usage
                0x00000000       0x18 c:/program files/microchip/xc32/v4.30/bin/bin/../../lib/gcc/pic32c/8.3.1/../../../../pic32c/lib/thumb/v7e-m+fp/hard\libc-musl.a(__fopen_rw.o)
 .text.__fopen_rw
                0x00000000       0x4c c:/program files/microchip/xc32/v4.30/bin/bin/../../lib/gcc/pic32c/8.3.1/../../../../pic32c/lib/thumb/v7e-m+fp/hard\libc-musl.a(__fopen_rw.o)
 .xc_stack_usage.hdr
                0x00000000        0xe c:/program files/microchip/xc32/v4.30/bin/bin/../../lib/gcc/pic32c/8.3.1/../../../../pic32c/lib/thumb/v7e-m+fp/hard\libc-musl.a(__fopen_rw.o)
 .debug_info    0x00000000      0x691 c:/program files/microchip/xc32/v4.30/bin/bin/../../lib/gcc/pic32c/8.3.1/../../../../pic32c/lib/thumb/v7e-m+fp/hard\libc-musl.a(__fopen_rw.o)
 .debug_abbrev  0x00000000      0x110 c:/program files/microchip/xc32/v4.30/bin/bin/../../lib/gcc/pic32c/8.3.1/../../../../pic32c/lib/thumb/v7e-m+fp/hard\libc-musl.a(__fopen_rw.o)
 .debug_loc     0x00000000       0x4f c:/program files/microchip/xc32/v4.30/bin/bin/../../lib/gcc/pic32c/8.3.1/../../../../pic32c/lib/thumb/v7e-m+fp/hard\libc-musl.a(__fopen_rw.o)
 .debug_aranges
                0x00000000       0x20 c:/program files/microchip/xc32/v4.30/bin/bin/../../lib/gcc/pic32c/8.3.1/../../../../pic32c/lib/thumb/v7e-m+fp/hard\libc-musl.a(__fopen_rw.o)
 .debug_ranges  0x00000000       0x10 c:/program files/microchip/xc32/v4.30/bin/bin/../../lib/gcc/pic32c/8.3.1/../../../../pic32c/lib/thumb/v7e-m+fp/hard\libc-musl.a(__fopen_rw.o)
 .debug_line    0x00000000      0x2a1 c:/program files/microchip/xc32/v4.30/bin/bin/../../lib/gcc/pic32c/8.3.1/../../../../pic32c/lib/thumb/v7e-m+fp/hard\libc-musl.a(__fopen_rw.o)
 .debug_str     0x00000000        0x0 c:/program files/microchip/xc32/v4.30/bin/bin/../../lib/gcc/pic32c/8.3.1/../../../../pic32c/lib/thumb/v7e-m+fp/hard\libc-musl.a(__fopen_rw.o)
 .comment       0x00000000       0x2c c:/program files/microchip/xc32/v4.30/bin/bin/../../lib/gcc/pic32c/8.3.1/../../../../pic32c/lib/thumb/v7e-m+fp/hard\libc-musl.a(__fopen_rw.o)
 .note.GNU-stack
                0x00000000        0x0 c:/program files/microchip/xc32/v4.30/bin/bin/../../lib/gcc/pic32c/8.3.1/../../../../pic32c/lib/thumb/v7e-m+fp/hard\libc-musl.a(__fopen_rw.o)
 .debug_frame   0x00000000       0x28 c:/program files/microchip/xc32/v4.30/bin/bin/../../lib/gcc/pic32c/8.3.1/../../../../pic32c/lib/thumb/v7e-m+fp/hard\libc-musl.a(__fopen_rw.o)
 .ARM.attributes
                0x00000000       0x36 c:/program files/microchip/xc32/v4.30/bin/bin/../../lib/gcc/pic32c/8.3.1/../../../../pic32c/lib/thumb/v7e-m+fp/hard\libc-musl.a(__fopen_rw.o)
 .text          0x00000000        0x0 c:/program files/microchip/xc32/v4.30/bin/bin/../../lib/gcc/pic32c/8.3.1/../../../../pic32c/lib/thumb/v7e-m+fp/hard\libc-musl.a(__ftello_rw.o)
 .data          0x00000000        0x0 c:/program files/microchip/xc32/v4.30/bin/bin/../../lib/gcc/pic32c/8.3.1/../../../../pic32c/lib/thumb/v7e-m+fp/hard\libc-musl.a(__ftello_rw.o)
 .bss           0x00000000        0x0 c:/program files/microchip/xc32/v4.30/bin/bin/../../lib/gcc/pic32c/8.3.1/../../../../pic32c/lib/thumb/v7e-m+fp/hard\libc-musl.a(__ftello_rw.o)
 .xc_stack_usage
                0x00000000       0x1d c:/program files/microchip/xc32/v4.30/bin/bin/../../lib/gcc/pic32c/8.3.1/../../../../pic32c/lib/thumb/v7e-m+fp/hard\libc-musl.a(__ftello_rw.o)
 .text.__ftello_adj_rw
                0x00000000       0x2c c:/program files/microchip/xc32/v4.30/bin/bin/../../lib/gcc/pic32c/8.3.1/../../../../pic32c/lib/thumb/v7e-m+fp/hard\libc-musl.a(__ftello_rw.o)
 .xc_stack_usage.hdr
                0x00000000        0xe c:/program files/microchip/xc32/v4.30/bin/bin/../../lib/gcc/pic32c/8.3.1/../../../../pic32c/lib/thumb/v7e-m+fp/hard\libc-musl.a(__ftello_rw.o)
 .debug_info    0x00000000      0x5f2 c:/program files/microchip/xc32/v4.30/bin/bin/../../lib/gcc/pic32c/8.3.1/../../../../pic32c/lib/thumb/v7e-m+fp/hard\libc-musl.a(__ftello_rw.o)
 .debug_abbrev  0x00000000       0xef c:/program files/microchip/xc32/v4.30/bin/bin/../../lib/gcc/pic32c/8.3.1/../../../../pic32c/lib/thumb/v7e-m+fp/hard\libc-musl.a(__ftello_rw.o)
 .debug_loc     0x00000000       0x45 c:/program files/microchip/xc32/v4.30/bin/bin/../../lib/gcc/pic32c/8.3.1/../../../../pic32c/lib/thumb/v7e-m+fp/hard\libc-musl.a(__ftello_rw.o)
 .debug_aranges
                0x00000000       0x20 c:/program files/microchip/xc32/v4.30/bin/bin/../../lib/gcc/pic32c/8.3.1/../../../../pic32c/lib/thumb/v7e-m+fp/hard\libc-musl.a(__ftello_rw.o)
 .debug_ranges  0x00000000       0x10 c:/program files/microchip/xc32/v4.30/bin/bin/../../lib/gcc/pic32c/8.3.1/../../../../pic32c/lib/thumb/v7e-m+fp/hard\libc-musl.a(__ftello_rw.o)
 .debug_line    0x00000000      0x1e9 c:/program files/microchip/xc32/v4.30/bin/bin/../../lib/gcc/pic32c/8.3.1/../../../../pic32c/lib/thumb/v7e-m+fp/hard\libc-musl.a(__ftello_rw.o)
 .debug_str     0x00000000        0x0 c:/program files/microchip/xc32/v4.30/bin/bin/../../lib/gcc/pic32c/8.3.1/../../../../pic32c/lib/thumb/v7e-m+fp/hard\libc-musl.a(__ftello_rw.o)
 .comment       0x00000000       0x2c c:/program files/microchip/xc32/v4.30/bin/bin/../../lib/gcc/pic32c/8.3.1/../../../../pic32c/lib/thumb/v7e-m+fp/hard\libc-musl.a(__ftello_rw.o)
 .note.GNU-stack
                0x00000000        0x0 c:/program files/microchip/xc32/v4.30/bin/bin/../../lib/gcc/pic32c/8.3.1/../../../../pic32c/lib/thumb/v7e-m+fp/hard\libc-musl.a(__ftello_rw.o)
 .debug_frame   0x00000000       0x2c c:/program files/microchip/xc32/v4.30/bin/bin/../../lib/gcc/pic32c/8.3.1/../../../../pic32c/lib/thumb/v7e-m+fp/hard\libc-musl.a(__ftello_rw.o)
 .ARM.attributes
                0x00000000       0x36 c:/program files/microchip/xc32/v4.30/bin/bin/../../lib/gcc/pic32c/8.3.1/../../../../pic32c/lib/thumb/v7e-m+fp/hard\libc-musl.a(__ftello_rw.o)
 .text          0x00000000        0x0 c:/program files/microchip/xc32/v4.30/bin/bin/../../lib/gcc/pic32c/8.3.1/../../../../pic32c/lib/thumb/v7e-m+fp/hard\libc-musl.a(__init_stdio.o)
 .data          0x00000000        0x0 c:/program files/microchip/xc32/v4.30/bin/bin/../../lib/gcc/pic32c/8.3.1/../../../../pic32c/lib/thumb/v7e-m+fp/hard\libc-musl.a(__init_stdio.o)
 .bss           0x00000000        0x0 c:/program files/microchip/xc32/v4.30/bin/bin/../../lib/gcc/pic32c/8.3.1/../../../../pic32c/lib/thumb/v7e-m+fp/hard\libc-musl.a(__init_stdio.o)
 .xc_stack_usage
                0x00000000       0x2f c:/program files/microchip/xc32/v4.30/bin/bin/../../lib/gcc/pic32c/8.3.1/../../../../pic32c/lib/thumb/v7e-m+fp/hard\libc-musl.a(__init_stdio.o)
 .xc_stack_usage.hdr
                0x00000000        0xe c:/program files/microchip/xc32/v4.30/bin/bin/../../lib/gcc/pic32c/8.3.1/../../../../pic32c/lib/thumb/v7e-m+fp/hard\libc-musl.a(__init_stdio.o)
 .text          0x00000000        0x0 c:/program files/microchip/xc32/v4.30/bin/bin/../../lib/gcc/pic32c/8.3.1/../../../../pic32c/lib/thumb/v7e-m+fp/hard\libc-musl.a(__io_buf_needed.o)
 .data          0x00000000        0x0 c:/program files/microchip/xc32/v4.30/bin/bin/../../lib/gcc/pic32c/8.3.1/../../../../pic32c/lib/thumb/v7e-m+fp/hard\libc-musl.a(__io_buf_needed.o)
 .bss           0x00000000        0x0 c:/program files/microchip/xc32/v4.30/bin/bin/../../lib/gcc/pic32c/8.3.1/../../../../pic32c/lib/thumb/v7e-m+fp/hard\libc-musl.a(__io_buf_needed.o)
 .xc_stack_usage
                0x00000000       0x1d c:/program files/microchip/xc32/v4.30/bin/bin/../../lib/gcc/pic32c/8.3.1/../../../../pic32c/lib/thumb/v7e-m+fp/hard\libc-musl.a(__io_buf_needed.o)
 .xc_stack_usage.hdr
                0x00000000        0xe c:/program files/microchip/xc32/v4.30/bin/bin/../../lib/gcc/pic32c/8.3.1/../../../../pic32c/lib/thumb/v7e-m+fp/hard\libc-musl.a(__io_buf_needed.o)
 .debug_info    0x00000000      0x3ac c:/program files/microchip/xc32/v4.30/bin/bin/../../lib/gcc/pic32c/8.3.1/../../../../pic32c/lib/thumb/v7e-m+fp/hard\libc-musl.a(__io_buf_needed.o)
 .debug_abbrev  0x00000000       0x6a c:/program files/microchip/xc32/v4.30/bin/bin/../../lib/gcc/pic32c/8.3.1/../../../../pic32c/lib/thumb/v7e-m+fp/hard\libc-musl.a(__io_buf_needed.o)
 .debug_loc     0x00000000       0x2c c:/program files/microchip/xc32/v4.30/bin/bin/../../lib/gcc/pic32c/8.3.1/../../../../pic32c/lib/thumb/v7e-m+fp/hard\libc-musl.a(__io_buf_needed.o)
 .debug_aranges
                0x00000000       0x20 c:/program files/microchip/xc32/v4.30/bin/bin/../../lib/gcc/pic32c/8.3.1/../../../../pic32c/lib/thumb/v7e-m+fp/hard\libc-musl.a(__io_buf_needed.o)
 .debug_ranges  0x00000000       0x10 c:/program files/microchip/xc32/v4.30/bin/bin/../../lib/gcc/pic32c/8.3.1/../../../../pic32c/lib/thumb/v7e-m+fp/hard\libc-musl.a(__io_buf_needed.o)
 .debug_line    0x00000000      0x142 c:/program files/microchip/xc32/v4.30/bin/bin/../../lib/gcc/pic32c/8.3.1/../../../../pic32c/lib/thumb/v7e-m+fp/hard\libc-musl.a(__io_buf_needed.o)
 .debug_str     0x00000000       0x77 c:/program files/microchip/xc32/v4.30/bin/bin/../../lib/gcc/pic32c/8.3.1/../../../../pic32c/lib/thumb/v7e-m+fp/hard\libc-musl.a(__io_buf_needed.o)
 .comment       0x00000000       0x2c c:/program files/microchip/xc32/v4.30/bin/bin/../../lib/gcc/pic32c/8.3.1/../../../../pic32c/lib/thumb/v7e-m+fp/hard\libc-musl.a(__io_buf_needed.o)
 .note.GNU-stack
                0x00000000        0x0 c:/program files/microchip/xc32/v4.30/bin/bin/../../lib/gcc/pic32c/8.3.1/../../../../pic32c/lib/thumb/v7e-m+fp/hard\libc-musl.a(__io_buf_needed.o)
 .debug_frame   0x00000000       0x2c c:/program files/microchip/xc32/v4.30/bin/bin/../../lib/gcc/pic32c/8.3.1/../../../../pic32c/lib/thumb/v7e-m+fp/hard\libc-musl.a(__io_buf_needed.o)
 .ARM.attributes
                0x00000000       0x36 c:/program files/microchip/xc32/v4.30/bin/bin/../../lib/gcc/pic32c/8.3.1/../../../../pic32c/lib/thumb/v7e-m+fp/hard\libc-musl.a(__io_buf_needed.o)
 .text          0x00000000        0x0 c:/program files/microchip/xc32/v4.30/bin/bin/../../lib/gcc/pic32c/8.3.1/../../../../pic32c/lib/thumb/v7e-m+fp/hard\libc-musl.a(__io_file_needed.o)
 .data          0x00000000        0x0 c:/program files/microchip/xc32/v4.30/bin/bin/../../lib/gcc/pic32c/8.3.1/../../../../pic32c/lib/thumb/v7e-m+fp/hard\libc-musl.a(__io_file_needed.o)
 .bss           0x00000000        0x0 c:/program files/microchip/xc32/v4.30/bin/bin/../../lib/gcc/pic32c/8.3.1/../../../../pic32c/lib/thumb/v7e-m+fp/hard\libc-musl.a(__io_file_needed.o)
 .xc_stack_usage
                0x00000000       0x1e c:/program files/microchip/xc32/v4.30/bin/bin/../../lib/gcc/pic32c/8.3.1/../../../../pic32c/lib/thumb/v7e-m+fp/hard\libc-musl.a(__io_file_needed.o)
 .xc_stack_usage.hdr
                0x00000000        0xe c:/program files/microchip/xc32/v4.30/bin/bin/../../lib/gcc/pic32c/8.3.1/../../../../pic32c/lib/thumb/v7e-m+fp/hard\libc-musl.a(__io_file_needed.o)
 .debug_info    0x00000000      0x323 c:/program files/microchip/xc32/v4.30/bin/bin/../../lib/gcc/pic32c/8.3.1/../../../../pic32c/lib/thumb/v7e-m+fp/hard\libc-musl.a(__io_file_needed.o)
 .debug_abbrev  0x00000000       0x5f c:/program files/microchip/xc32/v4.30/bin/bin/../../lib/gcc/pic32c/8.3.1/../../../../pic32c/lib/thumb/v7e-m+fp/hard\libc-musl.a(__io_file_needed.o)
 .debug_aranges
                0x00000000       0x20 c:/program files/microchip/xc32/v4.30/bin/bin/../../lib/gcc/pic32c/8.3.1/../../../../pic32c/lib/thumb/v7e-m+fp/hard\libc-musl.a(__io_file_needed.o)
 .debug_ranges  0x00000000       0x10 c:/program files/microchip/xc32/v4.30/bin/bin/../../lib/gcc/pic32c/8.3.1/../../../../pic32c/lib/thumb/v7e-m+fp/hard\libc-musl.a(__io_file_needed.o)
 .debug_line    0x00000000       0xb3 c:/program files/microchip/xc32/v4.30/bin/bin/../../lib/gcc/pic32c/8.3.1/../../../../pic32c/lib/thumb/v7e-m+fp/hard\libc-musl.a(__io_file_needed.o)
 .debug_str     0x00000000        0xd c:/program files/microchip/xc32/v4.30/bin/bin/../../lib/gcc/pic32c/8.3.1/../../../../pic32c/lib/thumb/v7e-m+fp/hard\libc-musl.a(__io_file_needed.o)
 .comment       0x00000000       0x2c c:/program files/microchip/xc32/v4.30/bin/bin/../../lib/gcc/pic32c/8.3.1/../../../../pic32c/lib/thumb/v7e-m+fp/hard\libc-musl.a(__io_file_needed.o)
 .note.GNU-stack
                0x00000000        0x0 c:/program files/microchip/xc32/v4.30/bin/bin/../../lib/gcc/pic32c/8.3.1/../../../../pic32c/lib/thumb/v7e-m+fp/hard\libc-musl.a(__io_file_needed.o)
 .debug_frame   0x00000000       0x20 c:/program files/microchip/xc32/v4.30/bin/bin/../../lib/gcc/pic32c/8.3.1/../../../../pic32c/lib/thumb/v7e-m+fp/hard\libc-musl.a(__io_file_needed.o)
 .ARM.attributes
                0x00000000       0x36 c:/program files/microchip/xc32/v4.30/bin/bin/../../lib/gcc/pic32c/8.3.1/../../../../pic32c/lib/thumb/v7e-m+fp/hard\libc-musl.a(__io_file_needed.o)
 .text          0x00000000        0x0 c:/program files/microchip/xc32/v4.30/bin/bin/../../lib/gcc/pic32c/8.3.1/../../../../pic32c/lib/thumb/v7e-m+fp/hard\libc-musl.a(__io_std_needed.o)
 .data          0x00000000        0x0 c:/program files/microchip/xc32/v4.30/bin/bin/../../lib/gcc/pic32c/8.3.1/../../../../pic32c/lib/thumb/v7e-m+fp/hard\libc-musl.a(__io_std_needed.o)
 .bss           0x00000000        0x0 c:/program files/microchip/xc32/v4.30/bin/bin/../../lib/gcc/pic32c/8.3.1/../../../../pic32c/lib/thumb/v7e-m+fp/hard\libc-musl.a(__io_std_needed.o)
 .xc_stack_usage
                0x00000000       0x1d c:/program files/microchip/xc32/v4.30/bin/bin/../../lib/gcc/pic32c/8.3.1/../../../../pic32c/lib/thumb/v7e-m+fp/hard\libc-musl.a(__io_std_needed.o)
 .xc_stack_usage.hdr
                0x00000000        0xe c:/program files/microchip/xc32/v4.30/bin/bin/../../lib/gcc/pic32c/8.3.1/../../../../pic32c/lib/thumb/v7e-m+fp/hard\libc-musl.a(__io_std_needed.o)
 .debug_info    0x00000000      0x395 c:/program files/microchip/xc32/v4.30/bin/bin/../../lib/gcc/pic32c/8.3.1/../../../../pic32c/lib/thumb/v7e-m+fp/hard\libc-musl.a(__io_std_needed.o)
 .debug_abbrev  0x00000000       0x6a c:/program files/microchip/xc32/v4.30/bin/bin/../../lib/gcc/pic32c/8.3.1/../../../../pic32c/lib/thumb/v7e-m+fp/hard\libc-musl.a(__io_std_needed.o)
 .debug_loc     0x00000000       0x2c c:/program files/microchip/xc32/v4.30/bin/bin/../../lib/gcc/pic32c/8.3.1/../../../../pic32c/lib/thumb/v7e-m+fp/hard\libc-musl.a(__io_std_needed.o)
 .debug_aranges
                0x00000000       0x20 c:/program files/microchip/xc32/v4.30/bin/bin/../../lib/gcc/pic32c/8.3.1/../../../../pic32c/lib/thumb/v7e-m+fp/hard\libc-musl.a(__io_std_needed.o)
 .debug_ranges  0x00000000       0x10 c:/program files/microchip/xc32/v4.30/bin/bin/../../lib/gcc/pic32c/8.3.1/../../../../pic32c/lib/thumb/v7e-m+fp/hard\libc-musl.a(__io_std_needed.o)
 .debug_line    0x00000000      0x141 c:/program files/microchip/xc32/v4.30/bin/bin/../../lib/gcc/pic32c/8.3.1/../../../../pic32c/lib/thumb/v7e-m+fp/hard\libc-musl.a(__io_std_needed.o)
 .debug_str     0x00000000       0x6b c:/program files/microchip/xc32/v4.30/bin/bin/../../lib/gcc/pic32c/8.3.1/../../../../pic32c/lib/thumb/v7e-m+fp/hard\libc-musl.a(__io_std_needed.o)
 .comment       0x00000000       0x2c c:/program files/microchip/xc32/v4.30/bin/bin/../../lib/gcc/pic32c/8.3.1/../../../../pic32c/lib/thumb/v7e-m+fp/hard\libc-musl.a(__io_std_needed.o)
 .note.GNU-stack
                0x00000000        0x0 c:/program files/microchip/xc32/v4.30/bin/bin/../../lib/gcc/pic32c/8.3.1/../../../../pic32c/lib/thumb/v7e-m+fp/hard\libc-musl.a(__io_std_needed.o)
 .debug_frame   0x00000000       0x2c c:/program files/microchip/xc32/v4.30/bin/bin/../../lib/gcc/pic32c/8.3.1/../../../../pic32c/lib/thumb/v7e-m+fp/hard\libc-musl.a(__io_std_needed.o)
 .ARM.attributes
                0x00000000       0x36 c:/program files/microchip/xc32/v4.30/bin/bin/../../lib/gcc/pic32c/8.3.1/../../../../pic32c/lib/thumb/v7e-m+fp/hard\libc-musl.a(__io_std_needed.o)
 .text          0x00000000        0x0 c:/program files/microchip/xc32/v4.30/bin/bin/../../lib/gcc/pic32c/8.3.1/../../../../pic32c/lib/thumb/v7e-m+fp/hard\libc-musl.a(__out.o)
 .data          0x00000000        0x0 c:/program files/microchip/xc32/v4.30/bin/bin/../../lib/gcc/pic32c/8.3.1/../../../../pic32c/lib/thumb/v7e-m+fp/hard\libc-musl.a(__out.o)
 .bss           0x00000000        0x0 c:/program files/microchip/xc32/v4.30/bin/bin/../../lib/gcc/pic32c/8.3.1/../../../../pic32c/lib/thumb/v7e-m+fp/hard\libc-musl.a(__out.o)
 .xc_stack_usage
                0x00000000       0x2d c:/program files/microchip/xc32/v4.30/bin/bin/../../lib/gcc/pic32c/8.3.1/../../../../pic32c/lib/thumb/v7e-m+fp/hard\libc-musl.a(__out.o)
 .text.__out    0x00000000       0x3a c:/program files/microchip/xc32/v4.30/bin/bin/../../lib/gcc/pic32c/8.3.1/../../../../pic32c/lib/thumb/v7e-m+fp/hard\libc-musl.a(__out.o)
 .xc_stack_usage.hdr
                0x00000000        0xe c:/program files/microchip/xc32/v4.30/bin/bin/../../lib/gcc/pic32c/8.3.1/../../../../pic32c/lib/thumb/v7e-m+fp/hard\libc-musl.a(__out.o)
 .text          0x00000000        0x0 c:/program files/microchip/xc32/v4.30/bin/bin/../../lib/gcc/pic32c/8.3.1/../../../../pic32c/lib/thumb/v7e-m+fp/hard\libc-musl.a(__putc.o)
 .data          0x00000000        0x0 c:/program files/microchip/xc32/v4.30/bin/bin/../../lib/gcc/pic32c/8.3.1/../../../../pic32c/lib/thumb/v7e-m+fp/hard\libc-musl.a(__putc.o)
 .bss           0x00000000        0x0 c:/program files/microchip/xc32/v4.30/bin/bin/../../lib/gcc/pic32c/8.3.1/../../../../pic32c/lib/thumb/v7e-m+fp/hard\libc-musl.a(__putc.o)
 .xc_stack_usage
                0x00000000       0x14 c:/program files/microchip/xc32/v4.30/bin/bin/../../lib/gcc/pic32c/8.3.1/../../../../pic32c/lib/thumb/v7e-m+fp/hard\libc-musl.a(__putc.o)
 .text.__putc   0x00000000       0x3e c:/program files/microchip/xc32/v4.30/bin/bin/../../lib/gcc/pic32c/8.3.1/../../../../pic32c/lib/thumb/v7e-m+fp/hard\libc-musl.a(__putc.o)
 .xc_stack_usage.hdr
                0x00000000        0xe c:/program files/microchip/xc32/v4.30/bin/bin/../../lib/gcc/pic32c/8.3.1/../../../../pic32c/lib/thumb/v7e-m+fp/hard\libc-musl.a(__putc.o)
 .debug_info    0x00000000      0x503 c:/program files/microchip/xc32/v4.30/bin/bin/../../lib/gcc/pic32c/8.3.1/../../../../pic32c/lib/thumb/v7e-m+fp/hard\libc-musl.a(__putc.o)
 .debug_abbrev  0x00000000       0xf3 c:/program files/microchip/xc32/v4.30/bin/bin/../../lib/gcc/pic32c/8.3.1/../../../../pic32c/lib/thumb/v7e-m+fp/hard\libc-musl.a(__putc.o)
 .debug_loc     0x00000000      0x114 c:/program files/microchip/xc32/v4.30/bin/bin/../../lib/gcc/pic32c/8.3.1/../../../../pic32c/lib/thumb/v7e-m+fp/hard\libc-musl.a(__putc.o)
 .debug_aranges
                0x00000000       0x20 c:/program files/microchip/xc32/v4.30/bin/bin/../../lib/gcc/pic32c/8.3.1/../../../../pic32c/lib/thumb/v7e-m+fp/hard\libc-musl.a(__putc.o)
 .debug_ranges  0x00000000       0x10 c:/program files/microchip/xc32/v4.30/bin/bin/../../lib/gcc/pic32c/8.3.1/../../../../pic32c/lib/thumb/v7e-m+fp/hard\libc-musl.a(__putc.o)
 .debug_line    0x00000000      0x174 c:/program files/microchip/xc32/v4.30/bin/bin/../../lib/gcc/pic32c/8.3.1/../../../../pic32c/lib/thumb/v7e-m+fp/hard\libc-musl.a(__putc.o)
 .debug_str     0x00000000       0x1d c:/program files/microchip/xc32/v4.30/bin/bin/../../lib/gcc/pic32c/8.3.1/../../../../pic32c/lib/thumb/v7e-m+fp/hard\libc-musl.a(__putc.o)
 .comment       0x00000000       0x2c c:/program files/microchip/xc32/v4.30/bin/bin/../../lib/gcc/pic32c/8.3.1/../../../../pic32c/lib/thumb/v7e-m+fp/hard\libc-musl.a(__putc.o)
 .note.GNU-stack
                0x00000000        0x0 c:/program files/microchip/xc32/v4.30/bin/bin/../../lib/gcc/pic32c/8.3.1/../../../../pic32c/lib/thumb/v7e-m+fp/hard\libc-musl.a(__putc.o)
 .debug_frame   0x00000000       0x38 c:/program files/microchip/xc32/v4.30/bin/bin/../../lib/gcc/pic32c/8.3.1/../../../../pic32c/lib/thumb/v7e-m+fp/hard\libc-musl.a(__putc.o)
 .ARM.attributes
                0x00000000       0x36 c:/program files/microchip/xc32/v4.30/bin/bin/../../lib/gcc/pic32c/8.3.1/../../../../pic32c/lib/thumb/v7e-m+fp/hard\libc-musl.a(__putc.o)
 .text          0x00000000        0x0 c:/program files/microchip/xc32/v4.30/bin/bin/../../lib/gcc/pic32c/8.3.1/../../../../pic32c/lib/thumb/v7e-m+fp/hard\libc-musl.a(__stderr.o)
 .data          0x00000000       0x60 c:/program files/microchip/xc32/v4.30/bin/bin/../../lib/gcc/pic32c/8.3.1/../../../../pic32c/lib/thumb/v7e-m+fp/hard\libc-musl.a(__stderr.o)
 .bss           0x00000000        0x0 c:/program files/microchip/xc32/v4.30/bin/bin/../../lib/gcc/pic32c/8.3.1/../../../../pic32c/lib/thumb/v7e-m+fp/hard\libc-musl.a(__stderr.o)
 .xc_stack_usage
                0x00000000       0x50 c:/program files/microchip/xc32/v4.30/bin/bin/../../lib/gcc/pic32c/8.3.1/../../../../pic32c/lib/thumb/v7e-m+fp/hard\libc-musl.a(__stderr.o)
 .text.__get_stderr
                0x00000000        0x8 c:/program files/microchip/xc32/v4.30/bin/bin/../../lib/gcc/pic32c/8.3.1/../../../../pic32c/lib/thumb/v7e-m+fp/hard\libc-musl.a(__stderr.o)
 .xc_stack_usage.hdr
                0x00000000        0xe c:/program files/microchip/xc32/v4.30/bin/bin/../../lib/gcc/pic32c/8.3.1/../../../../pic32c/lib/thumb/v7e-m+fp/hard\libc-musl.a(__stderr.o)
 .text          0x00000000        0x0 c:/program files/microchip/xc32/v4.30/bin/bin/../../lib/gcc/pic32c/8.3.1/../../../../pic32c/lib/thumb/v7e-m+fp/hard\libc-musl.a(__stdio_close.o)
 .data          0x00000000        0x0 c:/program files/microchip/xc32/v4.30/bin/bin/../../lib/gcc/pic32c/8.3.1/../../../../pic32c/lib/thumb/v7e-m+fp/hard\libc-musl.a(__stdio_close.o)
 .bss           0x00000000        0x0 c:/program files/microchip/xc32/v4.30/bin/bin/../../lib/gcc/pic32c/8.3.1/../../../../pic32c/lib/thumb/v7e-m+fp/hard\libc-musl.a(__stdio_close.o)
 .xc_stack_usage
                0x00000000       0x39 c:/program files/microchip/xc32/v4.30/bin/bin/../../lib/gcc/pic32c/8.3.1/../../../../pic32c/lib/thumb/v7e-m+fp/hard\libc-musl.a(__stdio_close.o)
 .text.__stdio_close
                0x00000000       0x44 c:/program files/microchip/xc32/v4.30/bin/bin/../../lib/gcc/pic32c/8.3.1/../../../../pic32c/lib/thumb/v7e-m+fp/hard\libc-musl.a(__stdio_close.o)
 .xc_stack_usage.hdr
                0x00000000        0xe c:/program files/microchip/xc32/v4.30/bin/bin/../../lib/gcc/pic32c/8.3.1/../../../../pic32c/lib/thumb/v7e-m+fp/hard\libc-musl.a(__stdio_close.o)
 .text          0x00000000        0x0 c:/program files/microchip/xc32/v4.30/bin/bin/../../lib/gcc/pic32c/8.3.1/../../../../pic32c/lib/thumb/v7e-m+fp/hard\libc-musl.a(__stdio_exit.o)
 .data          0x00000000        0x0 c:/program files/microchip/xc32/v4.30/bin/bin/../../lib/gcc/pic32c/8.3.1/../../../../pic32c/lib/thumb/v7e-m+fp/hard\libc-musl.a(__stdio_exit.o)
 .bss           0x00000000        0x4 c:/program files/microchip/xc32/v4.30/bin/bin/../../lib/gcc/pic32c/8.3.1/../../../../pic32c/lib/thumb/v7e-m+fp/hard\libc-musl.a(__stdio_exit.o)
 .xc_stack_usage
                0x00000000       0x45 c:/program files/microchip/xc32/v4.30/bin/bin/../../lib/gcc/pic32c/8.3.1/../../../../pic32c/lib/thumb/v7e-m+fp/hard\libc-musl.a(__stdio_exit.o)
 .text.__dummy  0x00000000        0x2 c:/program files/microchip/xc32/v4.30/bin/bin/../../lib/gcc/pic32c/8.3.1/../../../../pic32c/lib/thumb/v7e-m+fp/hard\libc-musl.a(__stdio_exit.o)
 .text.__dummy1
                0x00000000        0x4 c:/program files/microchip/xc32/v4.30/bin/bin/../../lib/gcc/pic32c/8.3.1/../../../../pic32c/lib/thumb/v7e-m+fp/hard\libc-musl.a(__stdio_exit.o)
 .text.__stdio_exit
                0x00000000       0x34 c:/program files/microchip/xc32/v4.30/bin/bin/../../lib/gcc/pic32c/8.3.1/../../../../pic32c/lib/thumb/v7e-m+fp/hard\libc-musl.a(__stdio_exit.o)
 .xc_stack_usage.hdr
                0x00000000        0xe c:/program files/microchip/xc32/v4.30/bin/bin/../../lib/gcc/pic32c/8.3.1/../../../../pic32c/lib/thumb/v7e-m+fp/hard\libc-musl.a(__stdio_exit.o)
 .debug_info    0x00000000      0x58c c:/program files/microchip/xc32/v4.30/bin/bin/../../lib/gcc/pic32c/8.3.1/../../../../pic32c/lib/thumb/v7e-m+fp/hard\libc-musl.a(__stdio_exit.o)
 .debug_abbrev  0x00000000      0x157 c:/program files/microchip/xc32/v4.30/bin/bin/../../lib/gcc/pic32c/8.3.1/../../../../pic32c/lib/thumb/v7e-m+fp/hard\libc-musl.a(__stdio_exit.o)
 .debug_loc     0x00000000       0x45 c:/program files/microchip/xc32/v4.30/bin/bin/../../lib/gcc/pic32c/8.3.1/../../../../pic32c/lib/thumb/v7e-m+fp/hard\libc-musl.a(__stdio_exit.o)
 .debug_aranges
                0x00000000       0x30 c:/program files/microchip/xc32/v4.30/bin/bin/../../lib/gcc/pic32c/8.3.1/../../../../pic32c/lib/thumb/v7e-m+fp/hard\libc-musl.a(__stdio_exit.o)
 .debug_ranges  0x00000000       0x20 c:/program files/microchip/xc32/v4.30/bin/bin/../../lib/gcc/pic32c/8.3.1/../../../../pic32c/lib/thumb/v7e-m+fp/hard\libc-musl.a(__stdio_exit.o)
 .debug_line    0x00000000      0x186 c:/program files/microchip/xc32/v4.30/bin/bin/../../lib/gcc/pic32c/8.3.1/../../../../pic32c/lib/thumb/v7e-m+fp/hard\libc-musl.a(__stdio_exit.o)
 .debug_str     0x00000000        0x0 c:/program files/microchip/xc32/v4.30/bin/bin/../../lib/gcc/pic32c/8.3.1/../../../../pic32c/lib/thumb/v7e-m+fp/hard\libc-musl.a(__stdio_exit.o)
 .comment       0x00000000       0x2c c:/program files/microchip/xc32/v4.30/bin/bin/../../lib/gcc/pic32c/8.3.1/../../../../pic32c/lib/thumb/v7e-m+fp/hard\libc-musl.a(__stdio_exit.o)
 .note.GNU-stack
                0x00000000        0x0 c:/program files/microchip/xc32/v4.30/bin/bin/../../lib/gcc/pic32c/8.3.1/../../../../pic32c/lib/thumb/v7e-m+fp/hard\libc-musl.a(__stdio_exit.o)
 .debug_frame   0x00000000       0x48 c:/program files/microchip/xc32/v4.30/bin/bin/../../lib/gcc/pic32c/8.3.1/../../../../pic32c/lib/thumb/v7e-m+fp/hard\libc-musl.a(__stdio_exit.o)
 .ARM.attributes
                0x00000000       0x36 c:/program files/microchip/xc32/v4.30/bin/bin/../../lib/gcc/pic32c/8.3.1/../../../../pic32c/lib/thumb/v7e-m+fp/hard\libc-musl.a(__stdio_exit.o)
 .text          0x00000000        0x0 c:/program files/microchip/xc32/v4.30/bin/bin/../../lib/gcc/pic32c/8.3.1/../../../../pic32c/lib/thumb/v7e-m+fp/hard\libc-musl.a(__stdio_write.o)
 .data          0x00000000        0x0 c:/program files/microchip/xc32/v4.30/bin/bin/../../lib/gcc/pic32c/8.3.1/../../../../pic32c/lib/thumb/v7e-m+fp/hard\libc-musl.a(__stdio_write.o)
 .bss           0x00000000        0x0 c:/program files/microchip/xc32/v4.30/bin/bin/../../lib/gcc/pic32c/8.3.1/../../../../pic32c/lib/thumb/v7e-m+fp/hard\libc-musl.a(__stdio_write.o)
 .xc_stack_usage
                0x00000000       0x42 c:/program files/microchip/xc32/v4.30/bin/bin/../../lib/gcc/pic32c/8.3.1/../../../../pic32c/lib/thumb/v7e-m+fp/hard\libc-musl.a(__stdio_write.o)
 .xc_stack_usage.hdr
                0x00000000        0xe c:/program files/microchip/xc32/v4.30/bin/bin/../../lib/gcc/pic32c/8.3.1/../../../../pic32c/lib/thumb/v7e-m+fp/hard\libc-musl.a(__stdio_write.o)
 .text          0x00000000        0x0 c:/program files/microchip/xc32/v4.30/bin/bin/../../lib/gcc/pic32c/8.3.1/../../../../pic32c/lib/thumb/v7e-m+fp/hard\libc-musl.a(__stdout.o)
 .bss           0x00000000        0x0 c:/program files/microchip/xc32/v4.30/bin/bin/../../lib/gcc/pic32c/8.3.1/../../../../pic32c/lib/thumb/v7e-m+fp/hard\libc-musl.a(__stdout.o)
 .xc_stack_usage
                0x00000000       0x50 c:/program files/microchip/xc32/v4.30/bin/bin/../../lib/gcc/pic32c/8.3.1/../../../../pic32c/lib/thumb/v7e-m+fp/hard\libc-musl.a(__stdout.o)
 .text.__dummy  0x00000000        0x2 c:/program files/microchip/xc32/v4.30/bin/bin/../../lib/gcc/pic32c/8.3.1/../../../../pic32c/lib/thumb/v7e-m+fp/hard\libc-musl.a(__stdout.o)
 .xc_stack_usage.hdr
                0x00000000        0xe c:/program files/microchip/xc32/v4.30/bin/bin/../../lib/gcc/pic32c/8.3.1/../../../../pic32c/lib/thumb/v7e-m+fp/hard\libc-musl.a(__stdout.o)
 .text          0x00000000        0x0 c:/program files/microchip/xc32/v4.30/bin/bin/../../lib/gcc/pic32c/8.3.1/../../../../pic32c/lib/thumb/v7e-m+fp/hard\libc-musl.a(__towrite.o)
 .data          0x00000000        0x0 c:/program files/microchip/xc32/v4.30/bin/bin/../../lib/gcc/pic32c/8.3.1/../../../../pic32c/lib/thumb/v7e-m+fp/hard\libc-musl.a(__towrite.o)
 .bss           0x00000000        0x0 c:/program files/microchip/xc32/v4.30/bin/bin/../../lib/gcc/pic32c/8.3.1/../../../../pic32c/lib/thumb/v7e-m+fp/hard\libc-musl.a(__towrite.o)
 .xc_stack_usage
                0x00000000       0x2c c:/program files/microchip/xc32/v4.30/bin/bin/../../lib/gcc/pic32c/8.3.1/../../../../pic32c/lib/thumb/v7e-m+fp/hard\libc-musl.a(__towrite.o)
 .text.__dummy  0x00000000        0x4 c:/program files/microchip/xc32/v4.30/bin/bin/../../lib/gcc/pic32c/8.3.1/../../../../pic32c/lib/thumb/v7e-m+fp/hard\libc-musl.a(__towrite.o)
 .xc_stack_usage.hdr
                0x00000000        0xe c:/program files/microchip/xc32/v4.30/bin/bin/../../lib/gcc/pic32c/8.3.1/../../../../pic32c/lib/thumb/v7e-m+fp/hard\libc-musl.a(__towrite.o)
 .text          0x00000000        0x0 c:/program files/microchip/xc32/v4.30/bin/bin/../../lib/gcc/pic32c/8.3.1/../../../../pic32c/lib/thumb/v7e-m+fp/hard\libc-musl.a(putc.o)
 .data          0x00000000        0x0 c:/program files/microchip/xc32/v4.30/bin/bin/../../lib/gcc/pic32c/8.3.1/../../../../pic32c/lib/thumb/v7e-m+fp/hard\libc-musl.a(putc.o)
 .bss           0x00000000        0x0 c:/program files/microchip/xc32/v4.30/bin/bin/../../lib/gcc/pic32c/8.3.1/../../../../pic32c/lib/thumb/v7e-m+fp/hard\libc-musl.a(putc.o)
 .xc_stack_usage
                0x00000000       0x4f c:/program files/microchip/xc32/v4.30/bin/bin/../../lib/gcc/pic32c/8.3.1/../../../../pic32c/lib/thumb/v7e-m+fp/hard\libc-musl.a(putc.o)
 .text.__putc_unbuffered
                0x00000000       0x38 c:/program files/microchip/xc32/v4.30/bin/bin/../../lib/gcc/pic32c/8.3.1/../../../../pic32c/lib/thumb/v7e-m+fp/hard\libc-musl.a(putc.o)
 .text.putc     0x00000000        0x8 c:/program files/microchip/xc32/v4.30/bin/bin/../../lib/gcc/pic32c/8.3.1/../../../../pic32c/lib/thumb/v7e-m+fp/hard\libc-musl.a(putc.o)
 __xc_reference_data
                0x00000000        0x8 c:/program files/microchip/xc32/v4.30/bin/bin/../../lib/gcc/pic32c/8.3.1/../../../../pic32c/lib/thumb/v7e-m+fp/hard\libc-musl.a(putc.o)
 .xc_stack_usage.hdr
                0x00000000        0xe c:/program files/microchip/xc32/v4.30/bin/bin/../../lib/gcc/pic32c/8.3.1/../../../../pic32c/lib/thumb/v7e-m+fp/hard\libc-musl.a(putc.o)
 .debug_info    0x00000000      0x4a5 c:/program files/microchip/xc32/v4.30/bin/bin/../../lib/gcc/pic32c/8.3.1/../../../../pic32c/lib/thumb/v7e-m+fp/hard\libc-musl.a(putc.o)
 .debug_abbrev  0x00000000      0x109 c:/program files/microchip/xc32/v4.30/bin/bin/../../lib/gcc/pic32c/8.3.1/../../../../pic32c/lib/thumb/v7e-m+fp/hard\libc-musl.a(putc.o)
 .debug_loc     0x00000000      0x123 c:/program files/microchip/xc32/v4.30/bin/bin/../../lib/gcc/pic32c/8.3.1/../../../../pic32c/lib/thumb/v7e-m+fp/hard\libc-musl.a(putc.o)
 .debug_aranges
                0x00000000       0x30 c:/program files/microchip/xc32/v4.30/bin/bin/../../lib/gcc/pic32c/8.3.1/../../../../pic32c/lib/thumb/v7e-m+fp/hard\libc-musl.a(putc.o)
 .debug_ranges  0x00000000       0x20 c:/program files/microchip/xc32/v4.30/bin/bin/../../lib/gcc/pic32c/8.3.1/../../../../pic32c/lib/thumb/v7e-m+fp/hard\libc-musl.a(putc.o)
 .debug_line    0x00000000      0x1ac c:/program files/microchip/xc32/v4.30/bin/bin/../../lib/gcc/pic32c/8.3.1/../../../../pic32c/lib/thumb/v7e-m+fp/hard\libc-musl.a(putc.o)
 .debug_str     0x00000000       0x16 c:/program files/microchip/xc32/v4.30/bin/bin/../../lib/gcc/pic32c/8.3.1/../../../../pic32c/lib/thumb/v7e-m+fp/hard\libc-musl.a(putc.o)
 .comment       0x00000000       0x2c c:/program files/microchip/xc32/v4.30/bin/bin/../../lib/gcc/pic32c/8.3.1/../../../../pic32c/lib/thumb/v7e-m+fp/hard\libc-musl.a(putc.o)
 .note.GNU-stack
                0x00000000        0x0 c:/program files/microchip/xc32/v4.30/bin/bin/../../lib/gcc/pic32c/8.3.1/../../../../pic32c/lib/thumb/v7e-m+fp/hard\libc-musl.a(putc.o)
 .debug_frame   0x00000000       0x54 c:/program files/microchip/xc32/v4.30/bin/bin/../../lib/gcc/pic32c/8.3.1/../../../../pic32c/lib/thumb/v7e-m+fp/hard\libc-musl.a(putc.o)
 .ARM.attributes
                0x00000000       0x36 c:/program files/microchip/xc32/v4.30/bin/bin/../../lib/gcc/pic32c/8.3.1/../../../../pic32c/lib/thumb/v7e-m+fp/hard\libc-musl.a(putc.o)
 .text          0x00000000        0x0 c:/program files/microchip/xc32/v4.30/bin/bin/../../lib/gcc/pic32c/8.3.1/../../../../pic32c/lib/thumb/v7e-m+fp/hard\libc-musl.a(writev.o)
 .data          0x00000000        0x0 c:/program files/microchip/xc32/v4.30/bin/bin/../../lib/gcc/pic32c/8.3.1/../../../../pic32c/lib/thumb/v7e-m+fp/hard\libc-musl.a(writev.o)
 .bss           0x00000000        0x0 c:/program files/microchip/xc32/v4.30/bin/bin/../../lib/gcc/pic32c/8.3.1/../../../../pic32c/lib/thumb/v7e-m+fp/hard\libc-musl.a(writev.o)
 .xc_stack_usage
                0x00000000       0x16 c:/program files/microchip/xc32/v4.30/bin/bin/../../lib/gcc/pic32c/8.3.1/../../../../pic32c/lib/thumb/v7e-m+fp/hard\libc-musl.a(writev.o)
 .xc_stack_usage.hdr
                0x00000000        0xe c:/program files/microchip/xc32/v4.30/bin/bin/../../lib/gcc/pic32c/8.3.1/../../../../pic32c/lib/thumb/v7e-m+fp/hard\libc-musl.a(writev.o)
 .text          0x00000000        0x0 c:/program files/microchip/xc32/v4.30/bin/bin/../../lib/gcc/pic32c/8.3.1/../../../../pic32c/lib/thumb/v7e-m+fp/hard\libc-musl.a(__overflow.o)
 .data          0x00000000        0x0 c:/program files/microchip/xc32/v4.30/bin/bin/../../lib/gcc/pic32c/8.3.1/../../../../pic32c/lib/thumb/v7e-m+fp/hard\libc-musl.a(__overflow.o)
 .bss           0x00000000        0x0 c:/program files/microchip/xc32/v4.30/bin/bin/../../lib/gcc/pic32c/8.3.1/../../../../pic32c/lib/thumb/v7e-m+fp/hard\libc-musl.a(__overflow.o)
 .xc_stack_usage
                0x00000000       0x18 c:/program files/microchip/xc32/v4.30/bin/bin/../../lib/gcc/pic32c/8.3.1/../../../../pic32c/lib/thumb/v7e-m+fp/hard\libc-musl.a(__overflow.o)
 .text.__overflow
                0x00000000       0x4e c:/program files/microchip/xc32/v4.30/bin/bin/../../lib/gcc/pic32c/8.3.1/../../../../pic32c/lib/thumb/v7e-m+fp/hard\libc-musl.a(__overflow.o)
 .xc_stack_usage.hdr
                0x00000000        0xe c:/program files/microchip/xc32/v4.30/bin/bin/../../lib/gcc/pic32c/8.3.1/../../../../pic32c/lib/thumb/v7e-m+fp/hard\libc-musl.a(__overflow.o)
 .debug_info    0x00000000      0x625 c:/program files/microchip/xc32/v4.30/bin/bin/../../lib/gcc/pic32c/8.3.1/../../../../pic32c/lib/thumb/v7e-m+fp/hard\libc-musl.a(__overflow.o)
 .debug_abbrev  0x00000000      0x125 c:/program files/microchip/xc32/v4.30/bin/bin/../../lib/gcc/pic32c/8.3.1/../../../../pic32c/lib/thumb/v7e-m+fp/hard\libc-musl.a(__overflow.o)
 .debug_loc     0x00000000       0xb6 c:/program files/microchip/xc32/v4.30/bin/bin/../../lib/gcc/pic32c/8.3.1/../../../../pic32c/lib/thumb/v7e-m+fp/hard\libc-musl.a(__overflow.o)
 .debug_aranges
                0x00000000       0x20 c:/program files/microchip/xc32/v4.30/bin/bin/../../lib/gcc/pic32c/8.3.1/../../../../pic32c/lib/thumb/v7e-m+fp/hard\libc-musl.a(__overflow.o)
 .debug_ranges  0x00000000       0x10 c:/program files/microchip/xc32/v4.30/bin/bin/../../lib/gcc/pic32c/8.3.1/../../../../pic32c/lib/thumb/v7e-m+fp/hard\libc-musl.a(__overflow.o)
 .debug_line    0x00000000      0x209 c:/program files/microchip/xc32/v4.30/bin/bin/../../lib/gcc/pic32c/8.3.1/../../../../pic32c/lib/thumb/v7e-m+fp/hard\libc-musl.a(__overflow.o)
 .debug_str     0x00000000        0xa c:/program files/microchip/xc32/v4.30/bin/bin/../../lib/gcc/pic32c/8.3.1/../../../../pic32c/lib/thumb/v7e-m+fp/hard\libc-musl.a(__overflow.o)
 .comment       0x00000000       0x2c c:/program files/microchip/xc32/v4.30/bin/bin/../../lib/gcc/pic32c/8.3.1/../../../../pic32c/lib/thumb/v7e-m+fp/hard\libc-musl.a(__overflow.o)
 .note.GNU-stack
                0x00000000        0x0 c:/program files/microchip/xc32/v4.30/bin/bin/../../lib/gcc/pic32c/8.3.1/../../../../pic32c/lib/thumb/v7e-m+fp/hard\libc-musl.a(__overflow.o)
 .debug_frame   0x00000000       0x30 c:/program files/microchip/xc32/v4.30/bin/bin/../../lib/gcc/pic32c/8.3.1/../../../../pic32c/lib/thumb/v7e-m+fp/hard\libc-musl.a(__overflow.o)
 .ARM.attributes
                0x00000000       0x36 c:/program files/microchip/xc32/v4.30/bin/bin/../../lib/gcc/pic32c/8.3.1/../../../../pic32c/lib/thumb/v7e-m+fp/hard\libc-musl.a(__overflow.o)
 .text          0x00000000        0x0 c:/program files/microchip/xc32/v4.30/bin/bin/../../lib/gcc/pic32c/8.3.1/../../../../pic32c/lib/thumb/v7e-m+fp/hard\libc-musl.a(__fclose.o)
 .data          0x00000000        0x0 c:/program files/microchip/xc32/v4.30/bin/bin/../../lib/gcc/pic32c/8.3.1/../../../../pic32c/lib/thumb/v7e-m+fp/hard\libc-musl.a(__fclose.o)
 .bss           0x00000000        0x0 c:/program files/microchip/xc32/v4.30/bin/bin/../../lib/gcc/pic32c/8.3.1/../../../../pic32c/lib/thumb/v7e-m+fp/hard\libc-musl.a(__fclose.o)
 .xc_stack_usage
                0x00000000       0x16 c:/program files/microchip/xc32/v4.30/bin/bin/../../lib/gcc/pic32c/8.3.1/../../../../pic32c/lib/thumb/v7e-m+fp/hard\libc-musl.a(__fclose.o)
 .text.__fclose
                0x00000000        0xc c:/program files/microchip/xc32/v4.30/bin/bin/../../lib/gcc/pic32c/8.3.1/../../../../pic32c/lib/thumb/v7e-m+fp/hard\libc-musl.a(__fclose.o)
 .xc_stack_usage.hdr
                0x00000000        0xe c:/program files/microchip/xc32/v4.30/bin/bin/../../lib/gcc/pic32c/8.3.1/../../../../pic32c/lib/thumb/v7e-m+fp/hard\libc-musl.a(__fclose.o)
 .debug_info    0x00000000      0x42c c:/program files/microchip/xc32/v4.30/bin/bin/../../lib/gcc/pic32c/8.3.1/../../../../pic32c/lib/thumb/v7e-m+fp/hard\libc-musl.a(__fclose.o)
 .debug_abbrev  0x00000000       0xc4 c:/program files/microchip/xc32/v4.30/bin/bin/../../lib/gcc/pic32c/8.3.1/../../../../pic32c/lib/thumb/v7e-m+fp/hard\libc-musl.a(__fclose.o)
 .debug_loc     0x00000000       0x74 c:/program files/microchip/xc32/v4.30/bin/bin/../../lib/gcc/pic32c/8.3.1/../../../../pic32c/lib/thumb/v7e-m+fp/hard\libc-musl.a(__fclose.o)
 .debug_aranges
                0x00000000       0x20 c:/program files/microchip/xc32/v4.30/bin/bin/../../lib/gcc/pic32c/8.3.1/../../../../pic32c/lib/thumb/v7e-m+fp/hard\libc-musl.a(__fclose.o)
 .debug_ranges  0x00000000       0x10 c:/program files/microchip/xc32/v4.30/bin/bin/../../lib/gcc/pic32c/8.3.1/../../../../pic32c/lib/thumb/v7e-m+fp/hard\libc-musl.a(__fclose.o)
 .debug_line    0x00000000      0x159 c:/program files/microchip/xc32/v4.30/bin/bin/../../lib/gcc/pic32c/8.3.1/../../../../pic32c/lib/thumb/v7e-m+fp/hard\libc-musl.a(__fclose.o)
 .debug_str     0x00000000        0x0 c:/program files/microchip/xc32/v4.30/bin/bin/../../lib/gcc/pic32c/8.3.1/../../../../pic32c/lib/thumb/v7e-m+fp/hard\libc-musl.a(__fclose.o)
 .comment       0x00000000       0x2c c:/program files/microchip/xc32/v4.30/bin/bin/../../lib/gcc/pic32c/8.3.1/../../../../pic32c/lib/thumb/v7e-m+fp/hard\libc-musl.a(__fclose.o)
 .note.GNU-stack
                0x00000000        0x0 c:/program files/microchip/xc32/v4.30/bin/bin/../../lib/gcc/pic32c/8.3.1/../../../../pic32c/lib/thumb/v7e-m+fp/hard\libc-musl.a(__fclose.o)
 .debug_frame   0x00000000       0x20 c:/program files/microchip/xc32/v4.30/bin/bin/../../lib/gcc/pic32c/8.3.1/../../../../pic32c/lib/thumb/v7e-m+fp/hard\libc-musl.a(__fclose.o)
 .ARM.attributes
                0x00000000       0x36 c:/program files/microchip/xc32/v4.30/bin/bin/../../lib/gcc/pic32c/8.3.1/../../../../pic32c/lib/thumb/v7e-m+fp/hard\libc-musl.a(__fclose.o)
 .text          0x00000000        0x0 c:/program files/microchip/xc32/v4.30/bin/bin/../../lib/gcc/pic32c/8.3.1/../../../../pic32c/lib/thumb/v7e-m+fp/hard\libc-musl.a(__fopen.o)
 .data          0x00000000        0x0 c:/program files/microchip/xc32/v4.30/bin/bin/../../lib/gcc/pic32c/8.3.1/../../../../pic32c/lib/thumb/v7e-m+fp/hard\libc-musl.a(__fopen.o)
 .bss           0x00000000        0x0 c:/program files/microchip/xc32/v4.30/bin/bin/../../lib/gcc/pic32c/8.3.1/../../../../pic32c/lib/thumb/v7e-m+fp/hard\libc-musl.a(__fopen.o)
 .xc_stack_usage
                0x00000000       0x43 c:/program files/microchip/xc32/v4.30/bin/bin/../../lib/gcc/pic32c/8.3.1/../../../../pic32c/lib/thumb/v7e-m+fp/hard\libc-musl.a(__fopen.o)
 .text.__dummy  0x00000000        0x4 c:/program files/microchip/xc32/v4.30/bin/bin/../../lib/gcc/pic32c/8.3.1/../../../../pic32c/lib/thumb/v7e-m+fp/hard\libc-musl.a(__fopen.o)
 .text.__fopen_std
                0x00000000       0x30 c:/program files/microchip/xc32/v4.30/bin/bin/../../lib/gcc/pic32c/8.3.1/../../../../pic32c/lib/thumb/v7e-m+fp/hard\libc-musl.a(__fopen.o)
 .text.__fopen  0x00000000        0x8 c:/program files/microchip/xc32/v4.30/bin/bin/../../lib/gcc/pic32c/8.3.1/../../../../pic32c/lib/thumb/v7e-m+fp/hard\libc-musl.a(__fopen.o)
 .xc_stack_usage.hdr
                0x00000000        0xe c:/program files/microchip/xc32/v4.30/bin/bin/../../lib/gcc/pic32c/8.3.1/../../../../pic32c/lib/thumb/v7e-m+fp/hard\libc-musl.a(__fopen.o)
 .debug_info    0x00000000      0x573 c:/program files/microchip/xc32/v4.30/bin/bin/../../lib/gcc/pic32c/8.3.1/../../../../pic32c/lib/thumb/v7e-m+fp/hard\libc-musl.a(__fopen.o)
 .debug_abbrev  0x00000000      0x14f c:/program files/microchip/xc32/v4.30/bin/bin/../../lib/gcc/pic32c/8.3.1/../../../../pic32c/lib/thumb/v7e-m+fp/hard\libc-musl.a(__fopen.o)
 .debug_loc     0x00000000       0x94 c:/program files/microchip/xc32/v4.30/bin/bin/../../lib/gcc/pic32c/8.3.1/../../../../pic32c/lib/thumb/v7e-m+fp/hard\libc-musl.a(__fopen.o)
 .debug_aranges
                0x00000000       0x30 c:/program files/microchip/xc32/v4.30/bin/bin/../../lib/gcc/pic32c/8.3.1/../../../../pic32c/lib/thumb/v7e-m+fp/hard\libc-musl.a(__fopen.o)
 .debug_ranges  0x00000000       0x20 c:/program files/microchip/xc32/v4.30/bin/bin/../../lib/gcc/pic32c/8.3.1/../../../../pic32c/lib/thumb/v7e-m+fp/hard\libc-musl.a(__fopen.o)
 .debug_line    0x00000000      0x22b c:/program files/microchip/xc32/v4.30/bin/bin/../../lib/gcc/pic32c/8.3.1/../../../../pic32c/lib/thumb/v7e-m+fp/hard\libc-musl.a(__fopen.o)
 .debug_str     0x00000000        0x0 c:/program files/microchip/xc32/v4.30/bin/bin/../../lib/gcc/pic32c/8.3.1/../../../../pic32c/lib/thumb/v7e-m+fp/hard\libc-musl.a(__fopen.o)
 .comment       0x00000000       0x2c c:/program files/microchip/xc32/v4.30/bin/bin/../../lib/gcc/pic32c/8.3.1/../../../../pic32c/lib/thumb/v7e-m+fp/hard\libc-musl.a(__fopen.o)
 .note.GNU-stack
                0x00000000        0x0 c:/program files/microchip/xc32/v4.30/bin/bin/../../lib/gcc/pic32c/8.3.1/../../../../pic32c/lib/thumb/v7e-m+fp/hard\libc-musl.a(__fopen.o)
 .debug_frame   0x00000000       0x50 c:/program files/microchip/xc32/v4.30/bin/bin/../../lib/gcc/pic32c/8.3.1/../../../../pic32c/lib/thumb/v7e-m+fp/hard\libc-musl.a(__fopen.o)
 .ARM.attributes
                0x00000000       0x36 c:/program files/microchip/xc32/v4.30/bin/bin/../../lib/gcc/pic32c/8.3.1/../../../../pic32c/lib/thumb/v7e-m+fp/hard\libc-musl.a(__fopen.o)
 .text          0x00000000        0x0 c:/program files/microchip/xc32/v4.30/bin/bin/../../lib/gcc/pic32c/8.3.1/../../../../pic32c/lib/thumb/v7e-m+fp/hard\libc-musl.a(__fseeko.o)
 .data          0x00000000        0x0 c:/program files/microchip/xc32/v4.30/bin/bin/../../lib/gcc/pic32c/8.3.1/../../../../pic32c/lib/thumb/v7e-m+fp/hard\libc-musl.a(__fseeko.o)
 .bss           0x00000000        0x0 c:/program files/microchip/xc32/v4.30/bin/bin/../../lib/gcc/pic32c/8.3.1/../../../../pic32c/lib/thumb/v7e-m+fp/hard\libc-musl.a(__fseeko.o)
 .xc_stack_usage
                0x00000000       0x16 c:/program files/microchip/xc32/v4.30/bin/bin/../../lib/gcc/pic32c/8.3.1/../../../../pic32c/lib/thumb/v7e-m+fp/hard\libc-musl.a(__fseeko.o)
 .text.__fseeko
                0x00000000        0x4 c:/program files/microchip/xc32/v4.30/bin/bin/../../lib/gcc/pic32c/8.3.1/../../../../pic32c/lib/thumb/v7e-m+fp/hard\libc-musl.a(__fseeko.o)
 .xc_stack_usage.hdr
                0x00000000        0xe c:/program files/microchip/xc32/v4.30/bin/bin/../../lib/gcc/pic32c/8.3.1/../../../../pic32c/lib/thumb/v7e-m+fp/hard\libc-musl.a(__fseeko.o)
 .debug_info    0x00000000      0x4e5 c:/program files/microchip/xc32/v4.30/bin/bin/../../lib/gcc/pic32c/8.3.1/../../../../pic32c/lib/thumb/v7e-m+fp/hard\libc-musl.a(__fseeko.o)
 .debug_abbrev  0x00000000       0xcb c:/program files/microchip/xc32/v4.30/bin/bin/../../lib/gcc/pic32c/8.3.1/../../../../pic32c/lib/thumb/v7e-m+fp/hard\libc-musl.a(__fseeko.o)
 .debug_loc     0x00000000       0x6f c:/program files/microchip/xc32/v4.30/bin/bin/../../lib/gcc/pic32c/8.3.1/../../../../pic32c/lib/thumb/v7e-m+fp/hard\libc-musl.a(__fseeko.o)
 .debug_aranges
                0x00000000       0x20 c:/program files/microchip/xc32/v4.30/bin/bin/../../lib/gcc/pic32c/8.3.1/../../../../pic32c/lib/thumb/v7e-m+fp/hard\libc-musl.a(__fseeko.o)
 .debug_ranges  0x00000000       0x10 c:/program files/microchip/xc32/v4.30/bin/bin/../../lib/gcc/pic32c/8.3.1/../../../../pic32c/lib/thumb/v7e-m+fp/hard\libc-musl.a(__fseeko.o)
 .debug_line    0x00000000      0x148 c:/program files/microchip/xc32/v4.30/bin/bin/../../lib/gcc/pic32c/8.3.1/../../../../pic32c/lib/thumb/v7e-m+fp/hard\libc-musl.a(__fseeko.o)
 .debug_str     0x00000000        0x0 c:/program files/microchip/xc32/v4.30/bin/bin/../../lib/gcc/pic32c/8.3.1/../../../../pic32c/lib/thumb/v7e-m+fp/hard\libc-musl.a(__fseeko.o)
 .comment       0x00000000       0x2c c:/program files/microchip/xc32/v4.30/bin/bin/../../lib/gcc/pic32c/8.3.1/../../../../pic32c/lib/thumb/v7e-m+fp/hard\libc-musl.a(__fseeko.o)
 .note.GNU-stack
                0x00000000        0x0 c:/program files/microchip/xc32/v4.30/bin/bin/../../lib/gcc/pic32c/8.3.1/../../../../pic32c/lib/thumb/v7e-m+fp/hard\libc-musl.a(__fseeko.o)
 .debug_frame   0x00000000       0x20 c:/program files/microchip/xc32/v4.30/bin/bin/../../lib/gcc/pic32c/8.3.1/../../../../pic32c/lib/thumb/v7e-m+fp/hard\libc-musl.a(__fseeko.o)
 .ARM.attributes
                0x00000000       0x36 c:/program files/microchip/xc32/v4.30/bin/bin/../../lib/gcc/pic32c/8.3.1/../../../../pic32c/lib/thumb/v7e-m+fp/hard\libc-musl.a(__fseeko.o)
 .text          0x00000000        0x0 c:/program files/microchip/xc32/v4.30/bin/bin/../../lib/gcc/pic32c/8.3.1/../../../../pic32c/lib/thumb/v7e-m+fp/hard\libc-musl.a(__ftello.o)
 .data          0x00000000        0x0 c:/program files/microchip/xc32/v4.30/bin/bin/../../lib/gcc/pic32c/8.3.1/../../../../pic32c/lib/thumb/v7e-m+fp/hard\libc-musl.a(__ftello.o)
 .bss           0x00000000        0x0 c:/program files/microchip/xc32/v4.30/bin/bin/../../lib/gcc/pic32c/8.3.1/../../../../pic32c/lib/thumb/v7e-m+fp/hard\libc-musl.a(__ftello.o)
 .xc_stack_usage
                0x00000000       0x2f c:/program files/microchip/xc32/v4.30/bin/bin/../../lib/gcc/pic32c/8.3.1/../../../../pic32c/lib/thumb/v7e-m+fp/hard\libc-musl.a(__ftello.o)
 .text.__dummy  0x00000000       0x1c c:/program files/microchip/xc32/v4.30/bin/bin/../../lib/gcc/pic32c/8.3.1/../../../../pic32c/lib/thumb/v7e-m+fp/hard\libc-musl.a(__ftello.o)
 .text.__ftello_adj
                0x00000000        0x8 c:/program files/microchip/xc32/v4.30/bin/bin/../../lib/gcc/pic32c/8.3.1/../../../../pic32c/lib/thumb/v7e-m+fp/hard\libc-musl.a(__ftello.o)
 .xc_stack_usage.hdr
                0x00000000        0xe c:/program files/microchip/xc32/v4.30/bin/bin/../../lib/gcc/pic32c/8.3.1/../../../../pic32c/lib/thumb/v7e-m+fp/hard\libc-musl.a(__ftello.o)
 .debug_info    0x00000000      0x514 c:/program files/microchip/xc32/v4.30/bin/bin/../../lib/gcc/pic32c/8.3.1/../../../../pic32c/lib/thumb/v7e-m+fp/hard\libc-musl.a(__ftello.o)
 .debug_abbrev  0x00000000       0xf5 c:/program files/microchip/xc32/v4.30/bin/bin/../../lib/gcc/pic32c/8.3.1/../../../../pic32c/lib/thumb/v7e-m+fp/hard\libc-musl.a(__ftello.o)
 .debug_loc     0x00000000       0xaf c:/program files/microchip/xc32/v4.30/bin/bin/../../lib/gcc/pic32c/8.3.1/../../../../pic32c/lib/thumb/v7e-m+fp/hard\libc-musl.a(__ftello.o)
 .debug_aranges
                0x00000000       0x28 c:/program files/microchip/xc32/v4.30/bin/bin/../../lib/gcc/pic32c/8.3.1/../../../../pic32c/lib/thumb/v7e-m+fp/hard\libc-musl.a(__ftello.o)
 .debug_ranges  0x00000000       0x18 c:/program files/microchip/xc32/v4.30/bin/bin/../../lib/gcc/pic32c/8.3.1/../../../../pic32c/lib/thumb/v7e-m+fp/hard\libc-musl.a(__ftello.o)
 .debug_line    0x00000000      0x182 c:/program files/microchip/xc32/v4.30/bin/bin/../../lib/gcc/pic32c/8.3.1/../../../../pic32c/lib/thumb/v7e-m+fp/hard\libc-musl.a(__ftello.o)
 .debug_str     0x00000000        0x0 c:/program files/microchip/xc32/v4.30/bin/bin/../../lib/gcc/pic32c/8.3.1/../../../../pic32c/lib/thumb/v7e-m+fp/hard\libc-musl.a(__ftello.o)
 .comment       0x00000000       0x2c c:/program files/microchip/xc32/v4.30/bin/bin/../../lib/gcc/pic32c/8.3.1/../../../../pic32c/lib/thumb/v7e-m+fp/hard\libc-musl.a(__ftello.o)
 .note.GNU-stack
                0x00000000        0x0 c:/program files/microchip/xc32/v4.30/bin/bin/../../lib/gcc/pic32c/8.3.1/../../../../pic32c/lib/thumb/v7e-m+fp/hard\libc-musl.a(__ftello.o)
 .debug_frame   0x00000000       0x40 c:/program files/microchip/xc32/v4.30/bin/bin/../../lib/gcc/pic32c/8.3.1/../../../../pic32c/lib/thumb/v7e-m+fp/hard\libc-musl.a(__ftello.o)
 .ARM.attributes
                0x00000000       0x36 c:/program files/microchip/xc32/v4.30/bin/bin/../../lib/gcc/pic32c/8.3.1/../../../../pic32c/lib/thumb/v7e-m+fp/hard\libc-musl.a(__ftello.o)
 .text          0x00000000        0x0 c:/program files/microchip/xc32/v4.30/bin/bin/../../lib/gcc/pic32c/8.3.1/../../../../pic32c/lib/thumb/v7e-m+fp/hard\libc-musl.a(__fwrite.o)
 .data          0x00000000        0x0 c:/program files/microchip/xc32/v4.30/bin/bin/../../lib/gcc/pic32c/8.3.1/../../../../pic32c/lib/thumb/v7e-m+fp/hard\libc-musl.a(__fwrite.o)
 .bss           0x00000000        0x0 c:/program files/microchip/xc32/v4.30/bin/bin/../../lib/gcc/pic32c/8.3.1/../../../../pic32c/lib/thumb/v7e-m+fp/hard\libc-musl.a(__fwrite.o)
 .xc_stack_usage
                0x00000000       0x36 c:/program files/microchip/xc32/v4.30/bin/bin/../../lib/gcc/pic32c/8.3.1/../../../../pic32c/lib/thumb/v7e-m+fp/hard\libc-musl.a(__fwrite.o)
 .text.__fwrite
                0x00000000       0x18 c:/program files/microchip/xc32/v4.30/bin/bin/../../lib/gcc/pic32c/8.3.1/../../../../pic32c/lib/thumb/v7e-m+fp/hard\libc-musl.a(__fwrite.o)
 __xc_reference_data
                0x00000000        0x4 c:/program files/microchip/xc32/v4.30/bin/bin/../../lib/gcc/pic32c/8.3.1/../../../../pic32c/lib/thumb/v7e-m+fp/hard\libc-musl.a(__fwrite.o)
 .xc_stack_usage.hdr
                0x00000000        0xe c:/program files/microchip/xc32/v4.30/bin/bin/../../lib/gcc/pic32c/8.3.1/../../../../pic32c/lib/thumb/v7e-m+fp/hard\libc-musl.a(__fwrite.o)
 .debug_info    0x00000000      0x544 c:/program files/microchip/xc32/v4.30/bin/bin/../../lib/gcc/pic32c/8.3.1/../../../../pic32c/lib/thumb/v7e-m+fp/hard\libc-musl.a(__fwrite.o)
 .debug_abbrev  0x00000000      0x11f c:/program files/microchip/xc32/v4.30/bin/bin/../../lib/gcc/pic32c/8.3.1/../../../../pic32c/lib/thumb/v7e-m+fp/hard\libc-musl.a(__fwrite.o)
 .debug_loc     0x00000000      0x10a c:/program files/microchip/xc32/v4.30/bin/bin/../../lib/gcc/pic32c/8.3.1/../../../../pic32c/lib/thumb/v7e-m+fp/hard\libc-musl.a(__fwrite.o)
 .debug_aranges
                0x00000000       0x28 c:/program files/microchip/xc32/v4.30/bin/bin/../../lib/gcc/pic32c/8.3.1/../../../../pic32c/lib/thumb/v7e-m+fp/hard\libc-musl.a(__fwrite.o)
 .debug_ranges  0x00000000       0x18 c:/program files/microchip/xc32/v4.30/bin/bin/../../lib/gcc/pic32c/8.3.1/../../../../pic32c/lib/thumb/v7e-m+fp/hard\libc-musl.a(__fwrite.o)
 .debug_line    0x00000000      0x1f3 c:/program files/microchip/xc32/v4.30/bin/bin/../../lib/gcc/pic32c/8.3.1/../../../../pic32c/lib/thumb/v7e-m+fp/hard\libc-musl.a(__fwrite.o)
 .debug_str     0x00000000       0x10 c:/program files/microchip/xc32/v4.30/bin/bin/../../lib/gcc/pic32c/8.3.1/../../../../pic32c/lib/thumb/v7e-m+fp/hard\libc-musl.a(__fwrite.o)
 .comment       0x00000000       0x2c c:/program files/microchip/xc32/v4.30/bin/bin/../../lib/gcc/pic32c/8.3.1/../../../../pic32c/lib/thumb/v7e-m+fp/hard\libc-musl.a(__fwrite.o)
 .note.GNU-stack
                0x00000000        0x0 c:/program files/microchip/xc32/v4.30/bin/bin/../../lib/gcc/pic32c/8.3.1/../../../../pic32c/lib/thumb/v7e-m+fp/hard\libc-musl.a(__fwrite.o)
 .debug_frame   0x00000000       0x40 c:/program files/microchip/xc32/v4.30/bin/bin/../../lib/gcc/pic32c/8.3.1/../../../../pic32c/lib/thumb/v7e-m+fp/hard\libc-musl.a(__fwrite.o)
 .ARM.attributes
                0x00000000       0x36 c:/program files/microchip/xc32/v4.30/bin/bin/../../lib/gcc/pic32c/8.3.1/../../../../pic32c/lib/thumb/v7e-m+fp/hard\libc-musl.a(__fwrite.o)
 .data          0x00000000        0x0 c:/program files/microchip/xc32/v4.30/bin/bin/../../lib/gcc/pic32c/8.3.1/thumb/v7e-m+fp/hard\libgcc.a(_aeabi_uldivmod.o)
 .bss           0x00000000        0x0 c:/program files/microchip/xc32/v4.30/bin/bin/../../lib/gcc/pic32c/8.3.1/thumb/v7e-m+fp/hard\libgcc.a(_aeabi_uldivmod.o)
 .xc_stack_usage.hdr
                0x00000000        0xe c:/program files/microchip/xc32/v4.30/bin/bin/../../lib/gcc/pic32c/8.3.1/thumb/v7e-m+fp/hard\libgcc.a(_aeabi_uldivmod.o)
 .xc_stack_usage
                0x00000000       0x1e c:/program files/microchip/xc32/v4.30/bin/bin/../../lib/gcc/pic32c/8.3.1/thumb/v7e-m+fp/hard\libgcc.a(_aeabi_uldivmod.o)
 .data          0x00000000        0x0 c:/program files/microchip/xc32/v4.30/bin/bin/../../lib/gcc/pic32c/8.3.1/thumb/v7e-m+fp/hard\libgcc.a(_udivmoddi4.o)
 .bss           0x00000000        0x0 c:/program files/microchip/xc32/v4.30/bin/bin/../../lib/gcc/pic32c/8.3.1/thumb/v7e-m+fp/hard\libgcc.a(_udivmoddi4.o)
 .xc_stack_usage
                0x00000000       0x1a c:/program files/microchip/xc32/v4.30/bin/bin/../../lib/gcc/pic32c/8.3.1/thumb/v7e-m+fp/hard\libgcc.a(_udivmoddi4.o)
 .ARM.extab     0x00000000        0x0 c:/program files/microchip/xc32/v4.30/bin/bin/../../lib/gcc/pic32c/8.3.1/thumb/v7e-m+fp/hard\libgcc.a(_udivmoddi4.o)
 .xc_stack_usage.hdr
                0x00000000        0xe c:/program files/microchip/xc32/v4.30/bin/bin/../../lib/gcc/pic32c/8.3.1/thumb/v7e-m+fp/hard\libgcc.a(_udivmoddi4.o)
 .data          0x00000000        0x0 c:/program files/microchip/xc32/v4.30/bin/bin/../../lib/gcc/pic32c/8.3.1/thumb/v7e-m+fp/hard\libgcc.a(_dvmd_tls.o)
 .bss           0x00000000        0x0 c:/program files/microchip/xc32/v4.30/bin/bin/../../lib/gcc/pic32c/8.3.1/thumb/v7e-m+fp/hard\libgcc.a(_dvmd_tls.o)
 .xc_stack_usage.hdr
                0x00000000        0xe c:/program files/microchip/xc32/v4.30/bin/bin/../../lib/gcc/pic32c/8.3.1/thumb/v7e-m+fp/hard\libgcc.a(_dvmd_tls.o)
 .xc_stack_usage
                0x00000000       0x36 c:/program files/microchip/xc32/v4.30/bin/bin/../../lib/gcc/pic32c/8.3.1/thumb/v7e-m+fp/hard\libgcc.a(_dvmd_tls.o)
 .text          0x00000000        0x0 c:/program files/microchip/xc32/v4.30/bin/bin/../../lib/gcc/pic32c/8.3.1/../../../../pic32c/lib/thumb/v7e-m+fp/hard\libpic32c.a(close.o)
 .data          0x00000000        0x0 c:/program files/microchip/xc32/v4.30/bin/bin/../../lib/gcc/pic32c/8.3.1/../../../../pic32c/lib/thumb/v7e-m+fp/hard\libpic32c.a(close.o)
 .bss           0x00000000        0x0 c:/program files/microchip/xc32/v4.30/bin/bin/../../lib/gcc/pic32c/8.3.1/../../../../pic32c/lib/thumb/v7e-m+fp/hard\libpic32c.a(close.o)
 .xc_stack_usage
                0x00000000       0x13 c:/program files/microchip/xc32/v4.30/bin/bin/../../lib/gcc/pic32c/8.3.1/../../../../pic32c/lib/thumb/v7e-m+fp/hard\libpic32c.a(close.o)
 .gnu.warning.closestub
                0x00000000        0x0 c:/program files/microchip/xc32/v4.30/bin/bin/../../lib/gcc/pic32c/8.3.1/../../../../pic32c/lib/thumb/v7e-m+fp/hard\libpic32c.a(close.o)
 .xc_stack_usage.hdr
                0x00000000        0xe c:/program files/microchip/xc32/v4.30/bin/bin/../../lib/gcc/pic32c/8.3.1/../../../../pic32c/lib/thumb/v7e-m+fp/hard\libpic32c.a(close.o)
 .text          0x00000000        0x0 c:/program files/microchip/xc32/v4.30/bin/bin/../../lib/gcc/pic32c/8.3.1/../../../../pic32c/lib/thumb/v7e-m+fp/hard\libpic32c.a(lseek.o)
 .data          0x00000000        0x0 c:/program files/microchip/xc32/v4.30/bin/bin/../../lib/gcc/pic32c/8.3.1/../../../../pic32c/lib/thumb/v7e-m+fp/hard\libpic32c.a(lseek.o)
 .bss           0x00000000        0x0 c:/program files/microchip/xc32/v4.30/bin/bin/../../lib/gcc/pic32c/8.3.1/../../../../pic32c/lib/thumb/v7e-m+fp/hard\libpic32c.a(lseek.o)
 .xc_stack_usage
                0x00000000       0x13 c:/program files/microchip/xc32/v4.30/bin/bin/../../lib/gcc/pic32c/8.3.1/../../../../pic32c/lib/thumb/v7e-m+fp/hard\libpic32c.a(lseek.o)
 .xc_stack_usage.hdr
                0x00000000        0xe c:/program files/microchip/xc32/v4.30/bin/bin/../../lib/gcc/pic32c/8.3.1/../../../../pic32c/lib/thumb/v7e-m+fp/hard\libpic32c.a(lseek.o)
 .text          0x00000000        0x0 c:/program files/microchip/xc32/v4.30/bin/bin/../../lib/gcc/pic32c/8.3.1/../../../../pic32c/lib/thumb/v7e-m+fp/hard\libpic32c.a(sbrk.o)
 .data          0x00000000        0x0 c:/program files/microchip/xc32/v4.30/bin/bin/../../lib/gcc/pic32c/8.3.1/../../../../pic32c/lib/thumb/v7e-m+fp/hard\libpic32c.a(sbrk.o)
 .xc_stack_usage
                0x00000000       0x13 c:/program files/microchip/xc32/v4.30/bin/bin/../../lib/gcc/pic32c/8.3.1/../../../../pic32c/lib/thumb/v7e-m+fp/hard\libpic32c.a(sbrk.o)
 .xc_stack_usage.hdr
                0x00000000        0xe c:/program files/microchip/xc32/v4.30/bin/bin/../../lib/gcc/pic32c/8.3.1/../../../../pic32c/lib/thumb/v7e-m+fp/hard\libpic32c.a(sbrk.o)
 .text          0x00000000        0x0 c:/program files/microchip/xc32/v4.30/bin/bin/../../lib/gcc/pic32c/8.3.1/thumb/v7e-m+fp/hard/crtend.o
 .data          0x00000000        0x0 c:/program files/microchip/xc32/v4.30/bin/bin/../../lib/gcc/pic32c/8.3.1/thumb/v7e-m+fp/hard/crtend.o
 .bss           0x00000000        0x0 c:/program files/microchip/xc32/v4.30/bin/bin/../../lib/gcc/pic32c/8.3.1/thumb/v7e-m+fp/hard/crtend.o
 .eh_frame      0x00000000        0x4 c:/program files/microchip/xc32/v4.30/bin/bin/../../lib/gcc/pic32c/8.3.1/thumb/v7e-m+fp/hard/crtend.o
 .xc_stack_usage.hdr
                0x00000000        0xe c:/program files/microchip/xc32/v4.30/bin/bin/../../lib/gcc/pic32c/8.3.1/thumb/v7e-m+fp/hard/crtend.o
 .comment       0x00000000       0x2c c:/program files/microchip/xc32/v4.30/bin/bin/../../lib/gcc/pic32c/8.3.1/thumb/v7e-m+fp/hard/crtend.o
 .ARM.attributes
                0x00000000       0x32 c:/program files/microchip/xc32/v4.30/bin/bin/../../lib/gcc/pic32c/8.3.1/thumb/v7e-m+fp/hard/crtend.o
 .text          0x00000000        0x0 c:/program files/microchip/xc32/v4.30/bin/bin/../../lib/gcc/pic32c/8.3.1/thumb/v7e-m+fp/hard/crtn.o
 .data          0x00000000        0x0 c:/program files/microchip/xc32/v4.30/bin/bin/../../lib/gcc/pic32c/8.3.1/thumb/v7e-m+fp/hard/crtn.o
 .bss           0x00000000        0x0 c:/program files/microchip/xc32/v4.30/bin/bin/../../lib/gcc/pic32c/8.3.1/thumb/v7e-m+fp/hard/crtn.o
 .xc_stack_usage.hdr
                0x00000000        0xe c:/program files/microchip/xc32/v4.30/bin/bin/../../lib/gcc/pic32c/8.3.1/thumb/v7e-m+fp/hard/crtn.o
 .text          0x00000000        0x0 c:/program files/microchip/xc32/v4.30/bin/bin/../../lib/gcc/pic32c/8.3.1/../../../../pic32c/lib/thumb/v7e-m+fp/hard\libpic32c.a(pic32_data_init_clear.o)
 .data          0x00000000        0x0 c:/program files/microchip/xc32/v4.30/bin/bin/../../lib/gcc/pic32c/8.3.1/../../../../pic32c/lib/thumb/v7e-m+fp/hard\libpic32c.a(pic32_data_init_clear.o)
 .bss           0x00000000        0x0 c:/program files/microchip/xc32/v4.30/bin/bin/../../lib/gcc/pic32c/8.3.1/../../../../pic32c/lib/thumb/v7e-m+fp/hard\libpic32c.a(pic32_data_init_clear.o)
 .xc_stack_usage
                0x00000000       0x1b c:/program files/microchip/xc32/v4.30/bin/bin/../../lib/gcc/pic32c/8.3.1/../../../../pic32c/lib/thumb/v7e-m+fp/hard\libpic32c.a(pic32_data_init_clear.o)
 .xc_stack_usage.hdr
                0x00000000        0xe c:/program files/microchip/xc32/v4.30/bin/bin/../../lib/gcc/pic32c/8.3.1/../../../../pic32c/lib/thumb/v7e-m+fp/hard\libpic32c.a(pic32_data_init_clear.o)
 .text          0x00000000        0x0 c:/program files/microchip/xc32/v4.30/bin/bin/../../lib/gcc/pic32c/8.3.1/../../../../pic32c/lib/thumb/v7e-m+fp/hard\libpic32c.a(pic32_data_init_copy.o)
 .data          0x00000000        0x0 c:/program files/microchip/xc32/v4.30/bin/bin/../../lib/gcc/pic32c/8.3.1/../../../../pic32c/lib/thumb/v7e-m+fp/hard\libpic32c.a(pic32_data_init_copy.o)
 .bss           0x00000000        0x0 c:/program files/microchip/xc32/v4.30/bin/bin/../../lib/gcc/pic32c/8.3.1/../../../../pic32c/lib/thumb/v7e-m+fp/hard\libpic32c.a(pic32_data_init_copy.o)
 .xc_stack_usage
                0x00000000       0x1a c:/program files/microchip/xc32/v4.30/bin/bin/../../lib/gcc/pic32c/8.3.1/../../../../pic32c/lib/thumb/v7e-m+fp/hard\libpic32c.a(pic32_data_init_copy.o)
 .xc_stack_usage.hdr
                0x00000000        0xe c:/program files/microchip/xc32/v4.30/bin/bin/../../lib/gcc/pic32c/8.3.1/../../../../pic32c/lib/thumb/v7e-m+fp/hard\libpic32c.a(pic32_data_init_copy.o)

Memory Configuration

Name             Origin             Length             Attributes
rom              0x00000000         0x00080000         xrl
ram              0x20000000         0x00030000         xw !r
tcm              0x03000000         0x00000000         xw
bkupram          0x47000000         0x00002000
config_00804000  0x00804000         0x00000004
config_00804004  0x00804004         0x00000004
config_00804008  0x00804008         0x00000004
*default*        0x00000000         0xffffffff

Linker script and memory map

LOAD c:/program files/microchip/xc32/v4.30/bin/bin/../../lib/gcc/pic32c/8.3.1/thumb/v7e-m+fp/hard/crti.o
LOAD c:/program files/microchip/xc32/v4.30/bin/bin/../../lib/gcc/pic32c/8.3.1/thumb/v7e-m+fp/hard/crtbegin.o
LOAD build/default/production/_ext/1984496892/plib_clock.o
LOAD build/default/production/_ext/1865131932/plib_cmcc.o
LOAD build/default/production/_ext/1986646378/plib_evsys.o
LOAD build/default/production/_ext/1865468468/plib_nvic.o
LOAD build/default/production/_ext/1593096446/plib_nvmctrl.o
LOAD build/default/production/_ext/1865521619/plib_port.o
LOAD build/default/production/_ext/163028504/xc32_monitor.o
LOAD build/default/production/_ext/1171490990/initialization.o
LOAD build/default/production/_ext/1171490990/exceptions.o
LOAD build/default/production/_ext/1171490990/interrupts.o
LOAD build/default/production/_ext/1171490990/libc_syscalls.o
LOAD build/default/production/_ext/1171490990/startup_xc32.o
LOAD build/default/production/_ext/1171490990/freertos_hooks.o
LOAD build/default/production/_ext/246609638/port.o
LOAD build/default/production/_ext/1665200909/heap_1.o
LOAD build/default/production/_ext/404212886/stream_buffer.o
LOAD build/default/production/_ext/404212886/croutine.o
LOAD build/default/production/_ext/404212886/queue.o
LOAD build/default/production/_ext/404212886/FreeRTOS_tasks.o
LOAD build/default/production/_ext/404212886/timers.o
LOAD build/default/production/_ext/404212886/event_groups.o
LOAD build/default/production/_ext/404212886/list.o
LOAD build/default/production/_ext/1360937237/main.o
LOAD build/default/production/_ext/504274921/plib_sercom3_usart.o
LOAD build/default/production/_ext/1100529066/drv_sdspi_file_system.o
LOAD build/default/production/_ext/714983638/plib_sercom4_i2c_slave.o
LOAD build/default/production/_ext/1269487135/sys_fs_fat_interface.o
LOAD build/default/production/_ext/411819097/ff.o
LOAD build/default/production/_ext/14461671/sys_dma.o
LOAD build/default/production/_ext/60180175/plib_rtc_timer.o
LOAD build/default/production/_ext/1269487135/sys_fs.o
LOAD build/default/production/_ext/565198302/diskio.o
LOAD build/default/production/_ext/101884895/sys_time.o
LOAD build/default/production/_ext/1171490990/tasks.o
LOAD build/default/production/_ext/1269487135/sys_fs_media_manager.o
LOAD build/default/production/_ext/1529399856/osal_freertos.o
LOAD build/default/production/_ext/1100529066/drv_sdspi.o
LOAD build/default/production/_ext/1014039709/sys_cache.o
LOAD build/default/production/_ext/1881668453/sys_int.o
LOAD build/default/production/_ext/1100529066/drv_sdspi_driver_interface.o
LOAD build/default/production/_ext/60184501/plib_wdt.o
LOAD build/default/production/_ext/17022449/plib_sercom2_spi_master.o
LOAD build/default/production/_ext/2070931557/drv_spi.o
LOAD build/default/production/_ext/1360937237/app.o
LOAD build/default/production/_ext/411819097/ffunicode.o
LOAD build/default/production/pdu_packet.o
                0x00000001                __MPLAB_BUILD = 0x1
                0x00080000                __rom_end = (ORIGIN (rom) + LENGTH (rom))
                0x20030000                __ram_end = (ORIGIN (ram) + LENGTH (ram))

.config_00804000
 *(.config_00804000)

.config_00804004
 *(.config_00804004)

.config_00804008
 *(.config_00804008)

.vectors        0x00000000      0x260
                0x00000000                . = ALIGN (0x4)
                0x00000000                _sfixed = .
 *(.vectors .vectors.* .vectors_default .vectors_default.*)
 .vectors.exception_table
                0x00000000      0x260 build/default/production/_ext/1171490990/interrupts.o
                0x00000000                exception_table
 *(.isr_vector)
 *(.reset*)
 *(.after_vectors)

.text           0x00000260       0x20
                0x00000260                . = ALIGN (0x4)
 *(.glue_7t)
 .glue_7t       0x00000260        0x0 linker stubs
 *(.glue_7)
 .glue_7        0x00000260        0x0 linker stubs
 *(.gnu.linkonce.r.*)
 *(.ARM.extab* .gnu.linkonce.armextab.*)
                0x00000260                . = ALIGN (0x4)
 *(.init)
 .init          0x00000260        0x4 c:/program files/microchip/xc32/v4.30/bin/bin/../../lib/gcc/pic32c/8.3.1/thumb/v7e-m+fp/hard/crti.o
                0x00000260                _init
 .init          0x00000264        0x8 c:/program files/microchip/xc32/v4.30/bin/bin/../../lib/gcc/pic32c/8.3.1/thumb/v7e-m+fp/hard/crtn.o
                0x0000026c                . = ALIGN (0x4)
                0x0000026c                __preinit_array_start = .
 *(.preinit_array)
                0x0000026c                __preinit_array_end = .
                0x0000026c                . = ALIGN (0x4)
                0x0000026c                __init_array_start = .
 *(SORT_BY_NAME(.init_array.*))
 *(.init_array)
 .init_array    0x0000026c        0x4 c:/program files/microchip/xc32/v4.30/bin/bin/../../lib/gcc/pic32c/8.3.1/thumb/v7e-m+fp/hard/crtbegin.o
                0x00000270                __init_array_end = .
                0x00000270                . = ALIGN (0x4)
 *crtbegin.o(.ctors)
 *(EXCLUDE_FILE(*crtend.o) .ctors)
 *(SORT_BY_NAME(.ctors.*))
 *crtend.o(.ctors)
                0x00000270                . = ALIGN (0x4)
 *(.fini)
 .fini          0x00000270        0x4 c:/program files/microchip/xc32/v4.30/bin/bin/../../lib/gcc/pic32c/8.3.1/thumb/v7e-m+fp/hard/crti.o
                0x00000270                _fini
 .fini          0x00000274        0x8 c:/program files/microchip/xc32/v4.30/bin/bin/../../lib/gcc/pic32c/8.3.1/thumb/v7e-m+fp/hard/crtn.o
                0x0000027c                . = ALIGN (0x4)
                0x0000027c                __fini_array_start = .
 *(.fini_array)
 .fini_array    0x0000027c        0x4 c:/program files/microchip/xc32/v4.30/bin/bin/../../lib/gcc/pic32c/8.3.1/thumb/v7e-m+fp/hard/crtbegin.o
 *(SORT_BY_NAME(.fini_array.*))
                0x00000280                __fini_array_end = .
 *crtbegin.o(.dtors)
 *(EXCLUDE_FILE(*crtend.o) .dtors)
 *(SORT_BY_NAME(.dtors.*))
 *crtend.o(.dtors)
                0x00000280                . = ALIGN (0x4)
                0x00000280                _efixed = .
                [!provide]                PROVIDE (__exidx_start = .)

.ARM.exidx      0x00000280        0x8
 *(.ARM.exidx* .gnu.linkonce.armexidx.*)
 .ARM.exidx     0x00000280        0x8 c:/program files/microchip/xc32/v4.30/bin/bin/../../lib/gcc/pic32c/8.3.1/thumb/v7e-m+fp/hard\libgcc.a(_udivmoddi4.o)
                [!provide]                PROVIDE (__exidx_end = .)
                0x00000288                . = ALIGN (0x4)
                0x00000288                _etext = .

.bss            0x20000000        0x0
                0x20000000                . = ALIGN (0x4)
                0x20000000                __bss_start__ = .
                0x20000000                _sbss = .
                0x20000000                _szero = .
 *(COMMON)
                0x20000000                . = ALIGN (0x4)
                0x20000000                __bss_end__ = .
                0x20000000                _ebss = .
                0x20000000                _ezero = .
                0x20000000                . = ALIGN (0x4)
                0x20000000                _end = .
                0x2002ffff                _ram_end_ = ((ORIGIN (ram) + LENGTH (ram)) - 0x1)

.bkupram_bss
 *(.bkupram_bss .bkupram_bss.*)
 *(.pbss .pbss.*)
                0x00000200                _min_heap_size = 0x200
START GROUP
LOAD c:/program files/microchip/xc32/v4.30/bin/bin/../../lib/gcc/pic32c/8.3.1/../../../../pic32c/lib/thumb/v7e-m+fp/hard\libpic32c.a
LOAD c:/program files/microchip/xc32/v4.30/bin/bin/../../lib/gcc/pic32c/8.3.1/../../../../pic32c/lib/thumb/v7e-m+fp/hard\libm-fast-emfloat.a
LOAD c:/program files/microchip/xc32/v4.30/bin/bin/../../lib/gcc/pic32c/8.3.1/../../../../pic32c/lib/thumb/v7e-m+fp/hard\libc-musl.a
LOAD c:/program files/microchip/xc32/v4.30/bin/bin/../../lib/gcc/pic32c/8.3.1/../../../../pic32c/lib/thumb/v7e-m+fp/hard\libm-fast-emfloat.a
LOAD c:/program files/microchip/xc32/v4.30/bin/bin/../../lib/gcc/pic32c/8.3.1/thumb/v7e-m+fp/hard\libgcc.a
END GROUP
LOAD c:/program files/microchip/xc32/v4.30/bin/bin/../../lib/gcc/pic32c/8.3.1/thumb/v7e-m+fp/hard/crtend.o
LOAD c:/program files/microchip/xc32/v4.30/bin/bin/../../lib/gcc/pic32c/8.3.1/thumb/v7e-m+fp/hard/crtn.o
OUTPUT(dist/default/production/Artemis-PDU.X.production.elf elf32-littlearm)
LOAD data_init
LOAD stack

.ARM.attributes
                0x00000000       0x34
 .ARM.attributes
                0x00000000       0x1e c:/program files/microchip/xc32/v4.30/bin/bin/../../lib/gcc/pic32c/8.3.1/thumb/v7e-m+fp/hard/crti.o
 .ARM.attributes
                0x0000001e       0x34 c:/program files/microchip/xc32/v4.30/bin/bin/../../lib/gcc/pic32c/8.3.1/thumb/v7e-m+fp/hard/crtbegin.o
 .ARM.attributes
                0x00000052       0x34 build/default/production/_ext/1984496892/plib_clock.o
 .ARM.attributes
                0x00000086       0x34 build/default/production/_ext/1986646378/plib_evsys.o
 .ARM.attributes
                0x000000ba       0x34 build/default/production/_ext/1865468468/plib_nvic.o
 .ARM.attributes
                0x000000ee       0x34 build/default/production/_ext/1593096446/plib_nvmctrl.o
 .ARM.attributes
                0x00000122       0x34 build/default/production/_ext/1865521619/plib_port.o
 .ARM.attributes
                0x00000156       0x34 build/default/production/_ext/163028504/xc32_monitor.o
 .ARM.attributes
                0x0000018a       0x34 build/default/production/_ext/1171490990/initialization.o
 .ARM.attributes
                0x000001be       0x34 build/default/production/_ext/1171490990/exceptions.o
 .ARM.attributes
                0x000001f2       0x34 build/default/production/_ext/1171490990/interrupts.o
 .ARM.attributes
                0x00000226       0x34 build/default/production/_ext/1171490990/startup_xc32.o
 .ARM.attributes
                0x0000025a       0x34 build/default/production/_ext/1171490990/freertos_hooks.o
 .ARM.attributes
                0x0000028e       0x34 build/default/production/_ext/246609638/port.o
 .ARM.attributes
                0x000002c2       0x34 build/default/production/_ext/1665200909/heap_1.o
 .ARM.attributes
                0x000002f6       0x34 build/default/production/_ext/404212886/queue.o
 .ARM.attributes
                0x0000032a       0x34 build/default/production/_ext/404212886/FreeRTOS_tasks.o
 .ARM.attributes
                0x0000035e       0x34 build/default/production/_ext/404212886/list.o
 .ARM.attributes
                0x00000392       0x34 build/default/production/_ext/1360937237/main.o
 .ARM.attributes
                0x000003c6       0x34 build/default/production/_ext/504274921/plib_sercom3_usart.o
 .ARM.attributes
                0x000003fa       0x34 build/default/production/_ext/1100529066/drv_sdspi_file_system.o
 .ARM.attributes
                0x0000042e       0x34 build/default/production/_ext/714983638/plib_sercom4_i2c_slave.o
 .ARM.attributes
                0x00000462       0x34 build/default/production/_ext/1269487135/sys_fs_fat_interface.o
 .ARM.attributes
                0x00000496       0x34 build/default/production/_ext/411819097/ff.o
 .ARM.attributes
                0x000004ca       0x34 build/default/production/_ext/60180175/plib_rtc_timer.o
 .ARM.attributes
                0x000004fe       0x34 build/default/production/_ext/1269487135/sys_fs.o
 .ARM.attributes
                0x00000532       0x34 build/default/production/_ext/565198302/diskio.o
 .ARM.attributes
                0x00000566       0x34 build/default/production/_ext/101884895/sys_time.o
 .ARM.attributes
                0x0000059a       0x34 build/default/production/_ext/1171490990/tasks.o
 .ARM.attributes
                0x000005ce       0x34 build/default/production/_ext/1269487135/sys_fs_media_manager.o
 .ARM.attributes
                0x00000602       0x34 build/default/production/_ext/1529399856/osal_freertos.o
 .ARM.attributes
                0x00000636       0x34 build/default/production/_ext/1100529066/drv_sdspi.o
 .ARM.attributes
                0x0000066a       0x34 build/default/production/_ext/1881668453/sys_int.o
 .ARM.attributes
                0x0000069e       0x34 build/default/production/_ext/1100529066/drv_sdspi_driver_interface.o
 .ARM.attributes
                0x000006d2       0x34 build/default/production/_ext/60184501/plib_wdt.o
 .ARM.attributes
                0x00000706       0x34 build/default/production/_ext/17022449/plib_sercom2_spi_master.o
 .ARM.attributes
                0x0000073a       0x34 build/default/production/_ext/2070931557/drv_spi.o
 .ARM.attributes
                0x0000076e       0x34 build/default/production/_ext/1360937237/app.o
 .ARM.attributes
                0x000007a2       0x34 build/default/production/_ext/411819097/ffunicode.o
 .ARM.attributes
                0x000007d6       0x34 build/default/production/pdu_packet.o
 .ARM.attributes
                0x0000080a       0x34 c:/program files/microchip/xc32/v4.30/bin/bin/../../lib/gcc/pic32c/8.3.1/../../../../pic32c/lib/thumb/v7e-m+fp/hard\libpic32c.a(data_init.o)
 .ARM.attributes
                0x0000083e       0x36 c:/program files/microchip/xc32/v4.30/bin/bin/../../lib/gcc/pic32c/8.3.1/../../../../pic32c/lib/thumb/v7e-m+fp/hard\libc-musl.a(__libc_start_main.o)
 .ARM.attributes
                0x00000874       0x34 c:/program files/microchip/xc32/v4.30/bin/bin/../../lib/gcc/pic32c/8.3.1/../../../../pic32c/lib/thumb/v7e-m+fp/hard\libc-musl.a(libc.o)
 .ARM.attributes
                0x000008a8       0x36 c:/program files/microchip/xc32/v4.30/bin/bin/../../lib/gcc/pic32c/8.3.1/../../../../pic32c/lib/thumb/v7e-m+fp/hard\libc-musl.a(malloc.o)
 .ARM.attributes
                0x000008de       0x36 c:/program files/microchip/xc32/v4.30/bin/bin/../../lib/gcc/pic32c/8.3.1/../../../../pic32c/lib/thumb/v7e-m+fp/hard\libc-musl.a(expand_heap.o)
 .ARM.attributes
                0x00000914       0x36 c:/program files/microchip/xc32/v4.30/bin/bin/../../lib/gcc/pic32c/8.3.1/../../../../pic32c/lib/thumb/v7e-m+fp/hard\libc-musl.a(stdin.o)
 .ARM.attributes
                0x0000094a       0x36 c:/program files/microchip/xc32/v4.30/bin/bin/../../lib/gcc/pic32c/8.3.1/../../../../pic32c/lib/thumb/v7e-m+fp/hard\libc-musl.a(stdout.o)
 .ARM.attributes
                0x00000980       0x36 c:/program files/microchip/xc32/v4.30/bin/bin/../../lib/gcc/pic32c/8.3.1/../../../../pic32c/lib/thumb/v7e-m+fp/hard\libc-musl.a(setbuf.o)
 .ARM.attributes
                0x000009b6       0x36 c:/program files/microchip/xc32/v4.30/bin/bin/../../lib/gcc/pic32c/8.3.1/../../../../pic32c/lib/thumb/v7e-m+fp/hard\libc-musl.a(memcmp.o)
 .ARM.attributes
                0x000009ec       0x36 c:/program files/microchip/xc32/v4.30/bin/bin/../../lib/gcc/pic32c/8.3.1/../../../../pic32c/lib/thumb/v7e-m+fp/hard\libc-musl.a(memcpy.o)
 .ARM.attributes
                0x00000a22       0x36 c:/program files/microchip/xc32/v4.30/bin/bin/../../lib/gcc/pic32c/8.3.1/../../../../pic32c/lib/thumb/v7e-m+fp/hard\libc-musl.a(memset.o)
 .ARM.attributes
                0x00000a58       0x36 c:/program files/microchip/xc32/v4.30/bin/bin/../../lib/gcc/pic32c/8.3.1/../../../../pic32c/lib/thumb/v7e-m+fp/hard\libc-musl.a(strlen.o)
 .ARM.attributes
                0x00000a8e       0x36 c:/program files/microchip/xc32/v4.30/bin/bin/../../lib/gcc/pic32c/8.3.1/../../../../pic32c/lib/thumb/v7e-m+fp/hard\libc-musl.a(strchr.o)
 .ARM.attributes
                0x00000ac4       0x36 c:/program files/microchip/xc32/v4.30/bin/bin/../../lib/gcc/pic32c/8.3.1/../../../../pic32c/lib/thumb/v7e-m+fp/hard\libc-musl.a(strchrnul.o)
 .ARM.attributes
                0x00000afa       0x34 c:/program files/microchip/xc32/v4.30/bin/bin/../../lib/gcc/pic32c/8.3.1/../../../../pic32c/lib/thumb/v7e-m+fp/hard\libc-musl.a(__environ.o)
 .ARM.attributes
                0x00000b2e       0x34 c:/program files/microchip/xc32/v4.30/bin/bin/../../lib/gcc/pic32c/8.3.1/../../../../pic32c/lib/thumb/v7e-m+fp/hard\libc-musl.a(__errno_location.o)
 .ARM.attributes
                0x00000b62       0x36 c:/program files/microchip/xc32/v4.30/bin/bin/../../lib/gcc/pic32c/8.3.1/../../../../pic32c/lib/thumb/v7e-m+fp/hard\libc-musl.a(__stdio_read.o)
 .ARM.attributes
                0x00000b98       0x36 c:/program files/microchip/xc32/v4.30/bin/bin/../../lib/gcc/pic32c/8.3.1/../../../../pic32c/lib/thumb/v7e-m+fp/hard\libc-musl.a(__towrite_rw.o)
 .ARM.attributes
                0x00000bce       0x36 c:/program files/microchip/xc32/v4.30/bin/bin/../../lib/gcc/pic32c/8.3.1/../../../../pic32c/lib/thumb/v7e-m+fp/hard\libc-musl.a(setvbuf.o)
 .ARM.attributes
                0x00000c04       0x36 c:/program files/microchip/xc32/v4.30/bin/bin/../../lib/gcc/pic32c/8.3.1/../../../../pic32c/lib/thumb/v7e-m+fp/hard\libc-musl.a(readv.o)
 .ARM.attributes
                0x00000c3a       0x36 c:/program files/microchip/xc32/v4.30/bin/bin/../../lib/gcc/pic32c/8.3.1/../../../../pic32c/lib/thumb/v7e-m+fp/hard\libc-musl.a(__init_stdio.o)
 .ARM.attributes
                0x00000c70       0x36 c:/program files/microchip/xc32/v4.30/bin/bin/../../lib/gcc/pic32c/8.3.1/../../../../pic32c/lib/thumb/v7e-m+fp/hard\libc-musl.a(__out.o)
 .ARM.attributes
                0x00000ca6       0x36 c:/program files/microchip/xc32/v4.30/bin/bin/../../lib/gcc/pic32c/8.3.1/../../../../pic32c/lib/thumb/v7e-m+fp/hard\libc-musl.a(__stderr.o)
 .ARM.attributes
                0x00000cdc       0x36 c:/program files/microchip/xc32/v4.30/bin/bin/../../lib/gcc/pic32c/8.3.1/../../../../pic32c/lib/thumb/v7e-m+fp/hard\libc-musl.a(__stdio_close.o)
 .ARM.attributes
                0x00000d12       0x36 c:/program files/microchip/xc32/v4.30/bin/bin/../../lib/gcc/pic32c/8.3.1/../../../../pic32c/lib/thumb/v7e-m+fp/hard\libc-musl.a(__stdio_write.o)
 .ARM.attributes
                0x00000d48       0x36 c:/program files/microchip/xc32/v4.30/bin/bin/../../lib/gcc/pic32c/8.3.1/../../../../pic32c/lib/thumb/v7e-m+fp/hard\libc-musl.a(__stdout.o)
 .ARM.attributes
                0x00000d7e       0x36 c:/program files/microchip/xc32/v4.30/bin/bin/../../lib/gcc/pic32c/8.3.1/../../../../pic32c/lib/thumb/v7e-m+fp/hard\libc-musl.a(__towrite.o)
 .ARM.attributes
                0x00000db4       0x36 c:/program files/microchip/xc32/v4.30/bin/bin/../../lib/gcc/pic32c/8.3.1/../../../../pic32c/lib/thumb/v7e-m+fp/hard\libc-musl.a(writev.o)
 .ARM.attributes
                0x00000dea       0x1e c:/program files/microchip/xc32/v4.30/bin/bin/../../lib/gcc/pic32c/8.3.1/thumb/v7e-m+fp/hard\libgcc.a(_aeabi_uldivmod.o)
 .ARM.attributes
                0x00000e08       0x34 c:/program files/microchip/xc32/v4.30/bin/bin/../../lib/gcc/pic32c/8.3.1/thumb/v7e-m+fp/hard\libgcc.a(_udivmoddi4.o)
 .ARM.attributes
                0x00000e3c       0x1e c:/program files/microchip/xc32/v4.30/bin/bin/../../lib/gcc/pic32c/8.3.1/thumb/v7e-m+fp/hard\libgcc.a(_dvmd_tls.o)
 .ARM.attributes
                0x00000e5a       0x34 c:/program files/microchip/xc32/v4.30/bin/bin/../../lib/gcc/pic32c/8.3.1/../../../../pic32c/lib/thumb/v7e-m+fp/hard\libpic32c.a(close.o)
 .ARM.attributes
                0x00000e8e       0x34 c:/program files/microchip/xc32/v4.30/bin/bin/../../lib/gcc/pic32c/8.3.1/../../../../pic32c/lib/thumb/v7e-m+fp/hard\libpic32c.a(lseek.o)
 .ARM.attributes
                0x00000ec2       0x34 c:/program files/microchip/xc32/v4.30/bin/bin/../../lib/gcc/pic32c/8.3.1/../../../../pic32c/lib/thumb/v7e-m+fp/hard\libpic32c.a(sbrk.o)
 .ARM.attributes
                0x00000ef6       0x1e c:/program files/microchip/xc32/v4.30/bin/bin/../../lib/gcc/pic32c/8.3.1/thumb/v7e-m+fp/hard/crtn.o
 .ARM.attributes
                0x00000f14       0x34 c:/program files/microchip/xc32/v4.30/bin/bin/../../lib/gcc/pic32c/8.3.1/../../../../pic32c/lib/thumb/v7e-m+fp/hard\libpic32c.a(pic32_data_init_clear.o)
 .ARM.attributes
                0x00000f48       0x34 c:/program files/microchip/xc32/v4.30/bin/bin/../../lib/gcc/pic32c/8.3.1/../../../../pic32c/lib/thumb/v7e-m+fp/hard\libpic32c.a(pic32_data_init_copy.o)

.comment        0x00000000       0x2b
 .comment       0x00000000       0x2b c:/program files/microchip/xc32/v4.30/bin/bin/../../lib/gcc/pic32c/8.3.1/thumb/v7e-m+fp/hard/crtbegin.o
                                 0x2c (size before relaxing)
 .comment       0x0000002b       0x2c build/default/production/_ext/1984496892/plib_clock.o
 .comment       0x0000002b       0x2c build/default/production/_ext/1986646378/plib_evsys.o
 .comment       0x0000002b       0x2c build/default/production/_ext/1865468468/plib_nvic.o
 .comment       0x0000002b       0x2c build/default/production/_ext/1593096446/plib_nvmctrl.o
 .comment       0x0000002b       0x2c build/default/production/_ext/1865521619/plib_port.o
 .comment       0x0000002b       0x2c build/default/production/_ext/163028504/xc32_monitor.o
 .comment       0x0000002b       0x2c build/default/production/_ext/1171490990/initialization.o
 .comment       0x0000002b       0x2c build/default/production/_ext/1171490990/exceptions.o
 .comment       0x0000002b       0x2c build/default/production/_ext/1171490990/interrupts.o
 .comment       0x0000002b       0x2c build/default/production/_ext/1171490990/startup_xc32.o
 .comment       0x0000002b       0x2c build/default/production/_ext/1171490990/freertos_hooks.o
 .comment       0x0000002b       0x2c build/default/production/_ext/246609638/port.o
 .comment       0x0000002b       0x2c build/default/production/_ext/1665200909/heap_1.o
 .comment       0x0000002b       0x2c build/default/production/_ext/404212886/queue.o
 .comment       0x0000002b       0x2c build/default/production/_ext/404212886/FreeRTOS_tasks.o
 .comment       0x0000002b       0x2c build/default/production/_ext/404212886/list.o
 .comment       0x0000002b       0x2c build/default/production/_ext/1360937237/main.o
 .comment       0x0000002b       0x2c build/default/production/_ext/504274921/plib_sercom3_usart.o
 .comment       0x0000002b       0x2c build/default/production/_ext/1100529066/drv_sdspi_file_system.o
 .comment       0x0000002b       0x2c build/default/production/_ext/714983638/plib_sercom4_i2c_slave.o
 .comment       0x0000002b       0x2c build/default/production/_ext/1269487135/sys_fs_fat_interface.o
 .comment       0x0000002b       0x2c build/default/production/_ext/411819097/ff.o
 .comment       0x0000002b       0x2c build/default/production/_ext/60180175/plib_rtc_timer.o
 .comment       0x0000002b       0x2c build/default/production/_ext/1269487135/sys_fs.o
 .comment       0x0000002b       0x2c build/default/production/_ext/565198302/diskio.o
 .comment       0x0000002b       0x2c build/default/production/_ext/101884895/sys_time.o
 .comment       0x0000002b       0x2c build/default/production/_ext/1171490990/tasks.o
 .comment       0x0000002b       0x2c build/default/production/_ext/1269487135/sys_fs_media_manager.o
 .comment       0x0000002b       0x2c build/default/production/_ext/1529399856/osal_freertos.o
 .comment       0x0000002b       0x2c build/default/production/_ext/1100529066/drv_sdspi.o
 .comment       0x0000002b       0x2c build/default/production/_ext/1881668453/sys_int.o
 .comment       0x0000002b       0x2c build/default/production/_ext/1100529066/drv_sdspi_driver_interface.o
 .comment       0x0000002b       0x2c build/default/production/_ext/60184501/plib_wdt.o
 .comment       0x0000002b       0x2c build/default/production/_ext/17022449/plib_sercom2_spi_master.o
 .comment       0x0000002b       0x2c build/default/production/_ext/2070931557/drv_spi.o
 .comment       0x0000002b       0x2c build/default/production/_ext/1360937237/app.o
 .comment       0x0000002b       0x2c build/default/production/_ext/411819097/ffunicode.o
 .comment       0x0000002b       0x2c build/default/production/pdu_packet.o
 .comment       0x0000002b       0x2c c:/program files/microchip/xc32/v4.30/bin/bin/../../lib/gcc/pic32c/8.3.1/../../../../pic32c/lib/thumb/v7e-m+fp/hard\libpic32c.a(data_init.o)
 .comment       0x0000002b       0x2c c:/program files/microchip/xc32/v4.30/bin/bin/../../lib/gcc/pic32c/8.3.1/../../../../pic32c/lib/thumb/v7e-m+fp/hard\libc-musl.a(__libc_start_main.o)
 .comment       0x0000002b       0x2c c:/program files/microchip/xc32/v4.30/bin/bin/../../lib/gcc/pic32c/8.3.1/../../../../pic32c/lib/thumb/v7e-m+fp/hard\libc-musl.a(libc.o)
 .comment       0x0000002b       0x2c c:/program files/microchip/xc32/v4.30/bin/bin/../../lib/gcc/pic32c/8.3.1/../../../../pic32c/lib/thumb/v7e-m+fp/hard\libc-musl.a(malloc.o)
 .comment       0x0000002b       0x2c c:/program files/microchip/xc32/v4.30/bin/bin/../../lib/gcc/pic32c/8.3.1/../../../../pic32c/lib/thumb/v7e-m+fp/hard\libc-musl.a(expand_heap.o)
 .comment       0x0000002b       0x2c c:/program files/microchip/xc32/v4.30/bin/bin/../../lib/gcc/pic32c/8.3.1/../../../../pic32c/lib/thumb/v7e-m+fp/hard\libc-musl.a(stdin.o)
 .comment       0x0000002b       0x2c c:/program files/microchip/xc32/v4.30/bin/bin/../../lib/gcc/pic32c/8.3.1/../../../../pic32c/lib/thumb/v7e-m+fp/hard\libc-musl.a(stdout.o)
 .comment       0x0000002b       0x2c c:/program files/microchip/xc32/v4.30/bin/bin/../../lib/gcc/pic32c/8.3.1/../../../../pic32c/lib/thumb/v7e-m+fp/hard\libc-musl.a(setbuf.o)
 .comment       0x0000002b       0x2c c:/program files/microchip/xc32/v4.30/bin/bin/../../lib/gcc/pic32c/8.3.1/../../../../pic32c/lib/thumb/v7e-m+fp/hard\libc-musl.a(memcmp.o)
 .comment       0x0000002b       0x2c c:/program files/microchip/xc32/v4.30/bin/bin/../../lib/gcc/pic32c/8.3.1/../../../../pic32c/lib/thumb/v7e-m+fp/hard\libc-musl.a(memcpy.o)
 .comment       0x0000002b       0x2c c:/program files/microchip/xc32/v4.30/bin/bin/../../lib/gcc/pic32c/8.3.1/../../../../pic32c/lib/thumb/v7e-m+fp/hard\libc-musl.a(memset.o)
 .comment       0x0000002b       0x2c c:/program files/microchip/xc32/v4.30/bin/bin/../../lib/gcc/pic32c/8.3.1/../../../../pic32c/lib/thumb/v7e-m+fp/hard\libc-musl.a(strlen.o)
 .comment       0x0000002b       0x2c c:/program files/microchip/xc32/v4.30/bin/bin/../../lib/gcc/pic32c/8.3.1/../../../../pic32c/lib/thumb/v7e-m+fp/hard\libc-musl.a(strchr.o)
 .comment       0x0000002b       0x2c c:/program files/microchip/xc32/v4.30/bin/bin/../../lib/gcc/pic32c/8.3.1/../../../../pic32c/lib/thumb/v7e-m+fp/hard\libc-musl.a(strchrnul.o)
 .comment       0x0000002b       0x2c c:/program files/microchip/xc32/v4.30/bin/bin/../../lib/gcc/pic32c/8.3.1/../../../../pic32c/lib/thumb/v7e-m+fp/hard\libc-musl.a(__environ.o)
 .comment       0x0000002b       0x2c c:/program files/microchip/xc32/v4.30/bin/bin/../../lib/gcc/pic32c/8.3.1/../../../../pic32c/lib/thumb/v7e-m+fp/hard\libc-musl.a(__errno_location.o)
 .comment       0x0000002b       0x2c c:/program files/microchip/xc32/v4.30/bin/bin/../../lib/gcc/pic32c/8.3.1/../../../../pic32c/lib/thumb/v7e-m+fp/hard\libc-musl.a(__stdio_read.o)
 .comment       0x0000002b       0x2c c:/program files/microchip/xc32/v4.30/bin/bin/../../lib/gcc/pic32c/8.3.1/../../../../pic32c/lib/thumb/v7e-m+fp/hard\libc-musl.a(__towrite_rw.o)
 .comment       0x0000002b       0x2c c:/program files/microchip/xc32/v4.30/bin/bin/../../lib/gcc/pic32c/8.3.1/../../../../pic32c/lib/thumb/v7e-m+fp/hard\libc-musl.a(setvbuf.o)
 .comment       0x0000002b       0x2c c:/program files/microchip/xc32/v4.30/bin/bin/../../lib/gcc/pic32c/8.3.1/../../../../pic32c/lib/thumb/v7e-m+fp/hard\libc-musl.a(readv.o)
 .comment       0x0000002b       0x2c c:/program files/microchip/xc32/v4.30/bin/bin/../../lib/gcc/pic32c/8.3.1/../../../../pic32c/lib/thumb/v7e-m+fp/hard\libc-musl.a(__init_stdio.o)
 .comment       0x0000002b       0x2c c:/program files/microchip/xc32/v4.30/bin/bin/../../lib/gcc/pic32c/8.3.1/../../../../pic32c/lib/thumb/v7e-m+fp/hard\libc-musl.a(__out.o)
 .comment       0x0000002b       0x2c c:/program files/microchip/xc32/v4.30/bin/bin/../../lib/gcc/pic32c/8.3.1/../../../../pic32c/lib/thumb/v7e-m+fp/hard\libc-musl.a(__stderr.o)
 .comment       0x0000002b       0x2c c:/program files/microchip/xc32/v4.30/bin/bin/../../lib/gcc/pic32c/8.3.1/../../../../pic32c/lib/thumb/v7e-m+fp/hard\libc-musl.a(__stdio_close.o)
 .comment       0x0000002b       0x2c c:/program files/microchip/xc32/v4.30/bin/bin/../../lib/gcc/pic32c/8.3.1/../../../../pic32c/lib/thumb/v7e-m+fp/hard\libc-musl.a(__stdio_write.o)
 .comment       0x0000002b       0x2c c:/program files/microchip/xc32/v4.30/bin/bin/../../lib/gcc/pic32c/8.3.1/../../../../pic32c/lib/thumb/v7e-m+fp/hard\libc-musl.a(__stdout.o)
 .comment       0x0000002b       0x2c c:/program files/microchip/xc32/v4.30/bin/bin/../../lib/gcc/pic32c/8.3.1/../../../../pic32c/lib/thumb/v7e-m+fp/hard\libc-musl.a(__towrite.o)
 .comment       0x0000002b       0x2c c:/program files/microchip/xc32/v4.30/bin/bin/../../lib/gcc/pic32c/8.3.1/../../../../pic32c/lib/thumb/v7e-m+fp/hard\libc-musl.a(writev.o)
 .comment       0x0000002b       0x2c c:/program files/microchip/xc32/v4.30/bin/bin/../../lib/gcc/pic32c/8.3.1/thumb/v7e-m+fp/hard\libgcc.a(_udivmoddi4.o)
 .comment       0x0000002b       0x2c c:/program files/microchip/xc32/v4.30/bin/bin/../../lib/gcc/pic32c/8.3.1/../../../../pic32c/lib/thumb/v7e-m+fp/hard\libpic32c.a(close.o)
 .comment       0x0000002b       0x2c c:/program files/microchip/xc32/v4.30/bin/bin/../../lib/gcc/pic32c/8.3.1/../../../../pic32c/lib/thumb/v7e-m+fp/hard\libpic32c.a(lseek.o)
 .comment       0x0000002b       0x2c c:/program files/microchip/xc32/v4.30/bin/bin/../../lib/gcc/pic32c/8.3.1/../../../../pic32c/lib/thumb/v7e-m+fp/hard\libpic32c.a(sbrk.o)
 .comment       0x0000002b       0x2c c:/program files/microchip/xc32/v4.30/bin/bin/../../lib/gcc/pic32c/8.3.1/../../../../pic32c/lib/thumb/v7e-m+fp/hard\libpic32c.a(pic32_data_init_clear.o)
 .comment       0x0000002b       0x2c c:/program files/microchip/xc32/v4.30/bin/bin/../../lib/gcc/pic32c/8.3.1/../../../../pic32c/lib/thumb/v7e-m+fp/hard\libpic32c.a(pic32_data_init_copy.o)

.debug_info     0x00000000    0x42ba2
 .debug_info    0x00000000      0xb5d build/default/production/_ext/1984496892/plib_clock.o
 .debug_info    0x00000b5d      0x319 build/default/production/_ext/1986646378/plib_evsys.o
 .debug_info    0x00000e76     0x16dc build/default/production/_ext/1865468468/plib_nvic.o
 .debug_info    0x00002552      0xe58 build/default/production/_ext/1593096446/plib_nvmctrl.o
 .debug_info    0x000033aa      0xfab build/default/production/_ext/1865521619/plib_port.o
 .debug_info    0x00004355      0x458 build/default/production/_ext/163028504/xc32_monitor.o
 .debug_info    0x000047ad     0x326e build/default/production/_ext/1171490990/initialization.o
 .debug_info    0x00007a1b      0x3db build/default/production/_ext/1171490990/exceptions.o
 .debug_info    0x00007df6     0x1899 build/default/production/_ext/1171490990/interrupts.o
 .debug_info    0x0000968f      0x894 build/default/production/_ext/1171490990/startup_xc32.o
 .debug_info    0x00009f23      0x52a build/default/production/_ext/1171490990/freertos_hooks.o
 .debug_info    0x0000a44d      0x786 build/default/production/_ext/246609638/port.o
 .debug_info    0x0000abd3      0x4e6 build/default/production/_ext/1665200909/heap_1.o
 .debug_info    0x0000b0b9     0x21ed build/default/production/_ext/404212886/queue.o
 .debug_info    0x0000d2a6     0x3173 build/default/production/_ext/404212886/FreeRTOS_tasks.o
 .debug_info    0x00010419      0x633 build/default/production/_ext/404212886/list.o
 .debug_info    0x00010a4c      0x332 build/default/production/_ext/1360937237/main.o
 .debug_info    0x00010d7e     0x158b build/default/production/_ext/504274921/plib_sercom3_usart.o
 .debug_info    0x00012309      0xc41 build/default/production/_ext/1100529066/drv_sdspi_file_system.o
 .debug_info    0x00012f4a     0x1411 build/default/production/_ext/714983638/plib_sercom4_i2c_slave.o
 .debug_info    0x0001435b     0x24df build/default/production/_ext/1269487135/sys_fs_fat_interface.o
 .debug_info    0x0001683a     0x6732 build/default/production/_ext/411819097/ff.o
 .debug_info    0x0001cf6c      0xff8 build/default/production/_ext/60180175/plib_rtc_timer.o
 .debug_info    0x0001df64     0x42a7 build/default/production/_ext/1269487135/sys_fs.o
 .debug_info    0x0002220b      0xf28 build/default/production/_ext/565198302/diskio.o
 .debug_info    0x00023133     0x2a8b build/default/production/_ext/101884895/sys_time.o
 .debug_info    0x00025bbe      0x818 build/default/production/_ext/1171490990/tasks.o
 .debug_info    0x000263d6     0x24d2 build/default/production/_ext/1269487135/sys_fs_media_manager.o
 .debug_info    0x000288a8      0xbd5 build/default/production/_ext/1529399856/osal_freertos.o
 .debug_info    0x0002947d     0x4dcf build/default/production/_ext/1100529066/drv_sdspi.o
 .debug_info    0x0002e24c     0x1192 build/default/production/_ext/1881668453/sys_int.o
 .debug_info    0x0002f3de     0x23bf build/default/production/_ext/1100529066/drv_sdspi_driver_interface.o
 .debug_info    0x0003179d      0x5dc build/default/production/_ext/60184501/plib_wdt.o
 .debug_info    0x00031d79     0x1537 build/default/production/_ext/17022449/plib_sercom2_spi_master.o
 .debug_info    0x000332b0     0x286c build/default/production/_ext/2070931557/drv_spi.o
 .debug_info    0x00035b1c     0x1111 build/default/production/_ext/1360937237/app.o
 .debug_info    0x00036c2d      0x553 build/default/production/_ext/411819097/ffunicode.o
 .debug_info    0x00037180     0x1b3e build/default/production/pdu_packet.o
 .debug_info    0x00038cbe      0x2bd c:/program files/microchip/xc32/v4.30/bin/bin/../../lib/gcc/pic32c/8.3.1/../../../../pic32c/lib/thumb/v7e-m+fp/hard\libpic32c.a(data_init.o)
 .debug_info    0x00038f7b      0x621 c:/program files/microchip/xc32/v4.30/bin/bin/../../lib/gcc/pic32c/8.3.1/../../../../pic32c/lib/thumb/v7e-m+fp/hard\libc-musl.a(__libc_start_main.o)
 .debug_info    0x0003959c      0x533 c:/program files/microchip/xc32/v4.30/bin/bin/../../lib/gcc/pic32c/8.3.1/../../../../pic32c/lib/thumb/v7e-m+fp/hard\libc-musl.a(libc.o)
 .debug_info    0x00039acf     0x13a3 c:/program files/microchip/xc32/v4.30/bin/bin/../../lib/gcc/pic32c/8.3.1/../../../../pic32c/lib/thumb/v7e-m+fp/hard\libc-musl.a(malloc.o)
 .debug_info    0x0003ae72      0x37a c:/program files/microchip/xc32/v4.30/bin/bin/../../lib/gcc/pic32c/8.3.1/../../../../pic32c/lib/thumb/v7e-m+fp/hard\libc-musl.a(expand_heap.o)
 .debug_info    0x0003b1ec      0x6be c:/program files/microchip/xc32/v4.30/bin/bin/../../lib/gcc/pic32c/8.3.1/../../../../pic32c/lib/thumb/v7e-m+fp/hard\libc-musl.a(stdin.o)
 .debug_info    0x0003b8aa      0x481 c:/program files/microchip/xc32/v4.30/bin/bin/../../lib/gcc/pic32c/8.3.1/../../../../pic32c/lib/thumb/v7e-m+fp/hard\libc-musl.a(stdout.o)
 .debug_info    0x0003bd2b      0x2e1 c:/program files/microchip/xc32/v4.30/bin/bin/../../lib/gcc/pic32c/8.3.1/../../../../pic32c/lib/thumb/v7e-m+fp/hard\libc-musl.a(setbuf.o)
 .debug_info    0x0003c00c      0x2e0 c:/program files/microchip/xc32/v4.30/bin/bin/../../lib/gcc/pic32c/8.3.1/../../../../pic32c/lib/thumb/v7e-m+fp/hard\libc-musl.a(memcmp.o)
 .debug_info    0x0003c2ec      0x2ef c:/program files/microchip/xc32/v4.30/bin/bin/../../lib/gcc/pic32c/8.3.1/../../../../pic32c/lib/thumb/v7e-m+fp/hard\libc-musl.a(memcpy.o)
 .debug_info    0x0003c5db      0x2b3 c:/program files/microchip/xc32/v4.30/bin/bin/../../lib/gcc/pic32c/8.3.1/../../../../pic32c/lib/thumb/v7e-m+fp/hard\libc-musl.a(memset.o)
 .debug_info    0x0003c88e      0x2a4 c:/program files/microchip/xc32/v4.30/bin/bin/../../lib/gcc/pic32c/8.3.1/../../../../pic32c/lib/thumb/v7e-m+fp/hard\libc-musl.a(strlen.o)
 .debug_info    0x0003cb32      0x2c6 c:/program files/microchip/xc32/v4.30/bin/bin/../../lib/gcc/pic32c/8.3.1/../../../../pic32c/lib/thumb/v7e-m+fp/hard\libc-musl.a(strchr.o)
 .debug_info    0x0003cdf8      0x38e c:/program files/microchip/xc32/v4.30/bin/bin/../../lib/gcc/pic32c/8.3.1/../../../../pic32c/lib/thumb/v7e-m+fp/hard\libc-musl.a(strchrnul.o)
 .debug_info    0x0003d186      0x2ad c:/program files/microchip/xc32/v4.30/bin/bin/../../lib/gcc/pic32c/8.3.1/../../../../pic32c/lib/thumb/v7e-m+fp/hard\libc-musl.a(__environ.o)
 .debug_info    0x0003d433      0x271 c:/program files/microchip/xc32/v4.30/bin/bin/../../lib/gcc/pic32c/8.3.1/../../../../pic32c/lib/thumb/v7e-m+fp/hard\libc-musl.a(__errno_location.o)
 .debug_info    0x0003d6a4      0x6a8 c:/program files/microchip/xc32/v4.30/bin/bin/../../lib/gcc/pic32c/8.3.1/../../../../pic32c/lib/thumb/v7e-m+fp/hard\libc-musl.a(__stdio_read.o)
 .debug_info    0x0003dd4c      0x5d7 c:/program files/microchip/xc32/v4.30/bin/bin/../../lib/gcc/pic32c/8.3.1/../../../../pic32c/lib/thumb/v7e-m+fp/hard\libc-musl.a(__towrite_rw.o)
 .debug_info    0x0003e323      0x54b c:/program files/microchip/xc32/v4.30/bin/bin/../../lib/gcc/pic32c/8.3.1/../../../../pic32c/lib/thumb/v7e-m+fp/hard\libc-musl.a(setvbuf.o)
 .debug_info    0x0003e86e      0x364 c:/program files/microchip/xc32/v4.30/bin/bin/../../lib/gcc/pic32c/8.3.1/../../../../pic32c/lib/thumb/v7e-m+fp/hard\libc-musl.a(readv.o)
 .debug_info    0x0003ebd2      0x32a c:/program files/microchip/xc32/v4.30/bin/bin/../../lib/gcc/pic32c/8.3.1/../../../../pic32c/lib/thumb/v7e-m+fp/hard\libc-musl.a(__init_stdio.o)
 .debug_info    0x0003eefc      0x536 c:/program files/microchip/xc32/v4.30/bin/bin/../../lib/gcc/pic32c/8.3.1/../../../../pic32c/lib/thumb/v7e-m+fp/hard\libc-musl.a(__out.o)
 .debug_info    0x0003f432      0x662 c:/program files/microchip/xc32/v4.30/bin/bin/../../lib/gcc/pic32c/8.3.1/../../../../pic32c/lib/thumb/v7e-m+fp/hard\libc-musl.a(__stderr.o)
 .debug_info    0x0003fa94      0x6c2 c:/program files/microchip/xc32/v4.30/bin/bin/../../lib/gcc/pic32c/8.3.1/../../../../pic32c/lib/thumb/v7e-m+fp/hard\libc-musl.a(__stdio_close.o)
 .debug_info    0x00040156      0x6f5 c:/program files/microchip/xc32/v4.30/bin/bin/../../lib/gcc/pic32c/8.3.1/../../../../pic32c/lib/thumb/v7e-m+fp/hard\libc-musl.a(__stdio_write.o)
 .debug_info    0x0004084b      0x662 c:/program files/microchip/xc32/v4.30/bin/bin/../../lib/gcc/pic32c/8.3.1/../../../../pic32c/lib/thumb/v7e-m+fp/hard\libc-musl.a(__stdout.o)
 .debug_info    0x00040ead      0x4f3 c:/program files/microchip/xc32/v4.30/bin/bin/../../lib/gcc/pic32c/8.3.1/../../../../pic32c/lib/thumb/v7e-m+fp/hard\libc-musl.a(__towrite.o)
 .debug_info    0x000413a0      0x368 c:/program files/microchip/xc32/v4.30/bin/bin/../../lib/gcc/pic32c/8.3.1/../../../../pic32c/lib/thumb/v7e-m+fp/hard\libc-musl.a(writev.o)
 .debug_info    0x00041708       0x26 c:/program files/microchip/xc32/v4.30/bin/bin/../../lib/gcc/pic32c/8.3.1/thumb/v7e-m+fp/hard\libgcc.a(_aeabi_uldivmod.o)
 .debug_info    0x0004172e      0x7aa c:/program files/microchip/xc32/v4.30/bin/bin/../../lib/gcc/pic32c/8.3.1/thumb/v7e-m+fp/hard\libgcc.a(_udivmoddi4.o)
 .debug_info    0x00041ed8       0x26 c:/program files/microchip/xc32/v4.30/bin/bin/../../lib/gcc/pic32c/8.3.1/thumb/v7e-m+fp/hard\libgcc.a(_dvmd_tls.o)
 .debug_info    0x00041efe      0x27e c:/program files/microchip/xc32/v4.30/bin/bin/../../lib/gcc/pic32c/8.3.1/../../../../pic32c/lib/thumb/v7e-m+fp/hard\libpic32c.a(close.o)
 .debug_info    0x0004217c      0x27e c:/program files/microchip/xc32/v4.30/bin/bin/../../lib/gcc/pic32c/8.3.1/../../../../pic32c/lib/thumb/v7e-m+fp/hard\libpic32c.a(lseek.o)
 .debug_info    0x000423fa      0x27d c:/program files/microchip/xc32/v4.30/bin/bin/../../lib/gcc/pic32c/8.3.1/../../../../pic32c/lib/thumb/v7e-m+fp/hard\libpic32c.a(sbrk.o)
 .debug_info    0x00042677      0x296 c:/program files/microchip/xc32/v4.30/bin/bin/../../lib/gcc/pic32c/8.3.1/../../../../pic32c/lib/thumb/v7e-m+fp/hard\libpic32c.a(pic32_data_init_clear.o)
 .debug_info    0x0004290d      0x295 c:/program files/microchip/xc32/v4.30/bin/bin/../../lib/gcc/pic32c/8.3.1/../../../../pic32c/lib/thumb/v7e-m+fp/hard\libpic32c.a(pic32_data_init_copy.o)

.debug_abbrev   0x00000000     0x7472
 .debug_abbrev  0x00000000      0x122 build/default/production/_ext/1984496892/plib_clock.o
 .debug_abbrev  0x00000122       0x3b build/default/production/_ext/1986646378/plib_evsys.o
 .debug_abbrev  0x0000015d      0x1f3 build/default/production/_ext/1865468468/plib_nvic.o
 .debug_abbrev  0x00000350      0x245 build/default/production/_ext/1593096446/plib_nvmctrl.o
 .debug_abbrev  0x00000595      0x1d6 build/default/production/_ext/1865521619/plib_port.o
 .debug_abbrev  0x0000076b       0xb9 build/default/production/_ext/163028504/xc32_monitor.o
 .debug_abbrev  0x00000824      0x2e2 build/default/production/_ext/1171490990/initialization.o
 .debug_abbrev  0x00000b06       0x3e build/default/production/_ext/1171490990/exceptions.o
 .debug_abbrev  0x00000b44       0xda build/default/production/_ext/1171490990/interrupts.o
 .debug_abbrev  0x00000c1e      0x1db build/default/production/_ext/1171490990/startup_xc32.o
 .debug_abbrev  0x00000df9      0x14e build/default/production/_ext/1171490990/freertos_hooks.o
 .debug_abbrev  0x00000f47      0x226 build/default/production/_ext/246609638/port.o
 .debug_abbrev  0x0000116d      0x14e build/default/production/_ext/1665200909/heap_1.o
 .debug_abbrev  0x000012bb      0x367 build/default/production/_ext/404212886/queue.o
 .debug_abbrev  0x00001622      0x46f build/default/production/_ext/404212886/FreeRTOS_tasks.o
 .debug_abbrev  0x00001a91      0x15e build/default/production/_ext/404212886/list.o
 .debug_abbrev  0x00001bef       0x77 build/default/production/_ext/1360937237/main.o
 .debug_abbrev  0x00001c66      0x2a1 build/default/production/_ext/504274921/plib_sercom3_usart.o
 .debug_abbrev  0x00001f07      0x15a build/default/production/_ext/1100529066/drv_sdspi_file_system.o
 .debug_abbrev  0x00002061      0x201 build/default/production/_ext/714983638/plib_sercom4_i2c_slave.o
 .debug_abbrev  0x00002262      0x312 build/default/production/_ext/1269487135/sys_fs_fat_interface.o
 .debug_abbrev  0x00002574      0x3f8 build/default/production/_ext/411819097/ff.o
 .debug_abbrev  0x0000296c      0x218 build/default/production/_ext/60180175/plib_rtc_timer.o
 .debug_abbrev  0x00002b84      0x4a2 build/default/production/_ext/1269487135/sys_fs.o
 .debug_abbrev  0x00003026      0x2d2 build/default/production/_ext/565198302/diskio.o
 .debug_abbrev  0x000032f8      0x4c9 build/default/production/_ext/101884895/sys_time.o
 .debug_abbrev  0x000037c1      0x170 build/default/production/_ext/1171490990/tasks.o
 .debug_abbrev  0x00003931      0x504 build/default/production/_ext/1269487135/sys_fs_media_manager.o
 .debug_abbrev  0x00003e35      0x1ea build/default/production/_ext/1529399856/osal_freertos.o
 .debug_abbrev  0x0000401f      0x573 build/default/production/_ext/1100529066/drv_sdspi.o
 .debug_abbrev  0x00004592      0x240 build/default/production/_ext/1881668453/sys_int.o
 .debug_abbrev  0x000047d2      0x266 build/default/production/_ext/1100529066/drv_sdspi_driver_interface.o
 .debug_abbrev  0x00004a38       0xe5 build/default/production/_ext/60184501/plib_wdt.o
 .debug_abbrev  0x00004b1d      0x2b2 build/default/production/_ext/17022449/plib_sercom2_spi_master.o
 .debug_abbrev  0x00004dcf      0x449 build/default/production/_ext/2070931557/drv_spi.o
 .debug_abbrev  0x00005218      0x1f3 build/default/production/_ext/1360937237/app.o
 .debug_abbrev  0x0000540b      0x103 build/default/production/_ext/411819097/ffunicode.o
 .debug_abbrev  0x0000550e      0x228 build/default/production/pdu_packet.o
 .debug_abbrev  0x00005736       0x44 c:/program files/microchip/xc32/v4.30/bin/bin/../../lib/gcc/pic32c/8.3.1/../../../../pic32c/lib/thumb/v7e-m+fp/hard\libpic32c.a(data_init.o)
 .debug_abbrev  0x0000577a      0x117 c:/program files/microchip/xc32/v4.30/bin/bin/../../lib/gcc/pic32c/8.3.1/../../../../pic32c/lib/thumb/v7e-m+fp/hard\libc-musl.a(__libc_start_main.o)
 .debug_abbrev  0x00005891       0xb8 c:/program files/microchip/xc32/v4.30/bin/bin/../../lib/gcc/pic32c/8.3.1/../../../../pic32c/lib/thumb/v7e-m+fp/hard\libc-musl.a(libc.o)
 .debug_abbrev  0x00005949      0x402 c:/program files/microchip/xc32/v4.30/bin/bin/../../lib/gcc/pic32c/8.3.1/../../../../pic32c/lib/thumb/v7e-m+fp/hard\libc-musl.a(malloc.o)
 .debug_abbrev  0x00005d4b       0xa5 c:/program files/microchip/xc32/v4.30/bin/bin/../../lib/gcc/pic32c/8.3.1/../../../../pic32c/lib/thumb/v7e-m+fp/hard\libc-musl.a(expand_heap.o)
 .debug_abbrev  0x00005df0      0x178 c:/program files/microchip/xc32/v4.30/bin/bin/../../lib/gcc/pic32c/8.3.1/../../../../pic32c/lib/thumb/v7e-m+fp/hard\libc-musl.a(stdin.o)
 .debug_abbrev  0x00005f68      0x135 c:/program files/microchip/xc32/v4.30/bin/bin/../../lib/gcc/pic32c/8.3.1/../../../../pic32c/lib/thumb/v7e-m+fp/hard\libc-musl.a(stdout.o)
 .debug_abbrev  0x0000609d       0xa0 c:/program files/microchip/xc32/v4.30/bin/bin/../../lib/gcc/pic32c/8.3.1/../../../../pic32c/lib/thumb/v7e-m+fp/hard\libc-musl.a(setbuf.o)
 .debug_abbrev  0x0000613d       0x8b c:/program files/microchip/xc32/v4.30/bin/bin/../../lib/gcc/pic32c/8.3.1/../../../../pic32c/lib/thumb/v7e-m+fp/hard\libc-musl.a(memcmp.o)
 .debug_abbrev  0x000061c8       0x9c c:/program files/microchip/xc32/v4.30/bin/bin/../../lib/gcc/pic32c/8.3.1/../../../../pic32c/lib/thumb/v7e-m+fp/hard\libc-musl.a(memcpy.o)
 .debug_abbrev  0x00006264       0x97 c:/program files/microchip/xc32/v4.30/bin/bin/../../lib/gcc/pic32c/8.3.1/../../../../pic32c/lib/thumb/v7e-m+fp/hard\libc-musl.a(memset.o)
 .debug_abbrev  0x000062fb       0x86 c:/program files/microchip/xc32/v4.30/bin/bin/../../lib/gcc/pic32c/8.3.1/../../../../pic32c/lib/thumb/v7e-m+fp/hard\libc-musl.a(strlen.o)
 .debug_abbrev  0x00006381       0xa2 c:/program files/microchip/xc32/v4.30/bin/bin/../../lib/gcc/pic32c/8.3.1/../../../../pic32c/lib/thumb/v7e-m+fp/hard\libc-musl.a(strchr.o)
 .debug_abbrev  0x00006423       0xa5 c:/program files/microchip/xc32/v4.30/bin/bin/../../lib/gcc/pic32c/8.3.1/../../../../pic32c/lib/thumb/v7e-m+fp/hard\libc-musl.a(strchrnul.o)
 .debug_abbrev  0x000064c8       0x57 c:/program files/microchip/xc32/v4.30/bin/bin/../../lib/gcc/pic32c/8.3.1/../../../../pic32c/lib/thumb/v7e-m+fp/hard\libc-musl.a(__environ.o)
 .debug_abbrev  0x0000651f       0x2e c:/program files/microchip/xc32/v4.30/bin/bin/../../lib/gcc/pic32c/8.3.1/../../../../pic32c/lib/thumb/v7e-m+fp/hard\libc-musl.a(__errno_location.o)
 .debug_abbrev  0x0000654d      0x150 c:/program files/microchip/xc32/v4.30/bin/bin/../../lib/gcc/pic32c/8.3.1/../../../../pic32c/lib/thumb/v7e-m+fp/hard\libc-musl.a(__stdio_read.o)
 .debug_abbrev  0x0000669d       0xdc c:/program files/microchip/xc32/v4.30/bin/bin/../../lib/gcc/pic32c/8.3.1/../../../../pic32c/lib/thumb/v7e-m+fp/hard\libc-musl.a(__towrite_rw.o)
 .debug_abbrev  0x00006779      0x11c c:/program files/microchip/xc32/v4.30/bin/bin/../../lib/gcc/pic32c/8.3.1/../../../../pic32c/lib/thumb/v7e-m+fp/hard\libc-musl.a(setvbuf.o)
 .debug_abbrev  0x00006895       0xd8 c:/program files/microchip/xc32/v4.30/bin/bin/../../lib/gcc/pic32c/8.3.1/../../../../pic32c/lib/thumb/v7e-m+fp/hard\libc-musl.a(readv.o)
 .debug_abbrev  0x0000696d       0x5a c:/program files/microchip/xc32/v4.30/bin/bin/../../lib/gcc/pic32c/8.3.1/../../../../pic32c/lib/thumb/v7e-m+fp/hard\libc-musl.a(__init_stdio.o)
 .debug_abbrev  0x000069c7      0x170 c:/program files/microchip/xc32/v4.30/bin/bin/../../lib/gcc/pic32c/8.3.1/../../../../pic32c/lib/thumb/v7e-m+fp/hard\libc-musl.a(__out.o)
 .debug_abbrev  0x00006b37      0x154 c:/program files/microchip/xc32/v4.30/bin/bin/../../lib/gcc/pic32c/8.3.1/../../../../pic32c/lib/thumb/v7e-m+fp/hard\libc-musl.a(__stderr.o)
 .debug_abbrev  0x00006c8b      0x122 c:/program files/microchip/xc32/v4.30/bin/bin/../../lib/gcc/pic32c/8.3.1/../../../../pic32c/lib/thumb/v7e-m+fp/hard\libc-musl.a(__stdio_close.o)
 .debug_abbrev  0x00006dad      0x1a1 c:/program files/microchip/xc32/v4.30/bin/bin/../../lib/gcc/pic32c/8.3.1/../../../../pic32c/lib/thumb/v7e-m+fp/hard\libc-musl.a(__stdio_write.o)
 .debug_abbrev  0x00006f4e      0x154 c:/program files/microchip/xc32/v4.30/bin/bin/../../lib/gcc/pic32c/8.3.1/../../../../pic32c/lib/thumb/v7e-m+fp/hard\libc-musl.a(__stdout.o)
 .debug_abbrev  0x000070a2       0xf8 c:/program files/microchip/xc32/v4.30/bin/bin/../../lib/gcc/pic32c/8.3.1/../../../../pic32c/lib/thumb/v7e-m+fp/hard\libc-musl.a(__towrite.o)
 .debug_abbrev  0x0000719a       0xd8 c:/program files/microchip/xc32/v4.30/bin/bin/../../lib/gcc/pic32c/8.3.1/../../../../pic32c/lib/thumb/v7e-m+fp/hard\libc-musl.a(writev.o)
 .debug_abbrev  0x00007272       0x14 c:/program files/microchip/xc32/v4.30/bin/bin/../../lib/gcc/pic32c/8.3.1/thumb/v7e-m+fp/hard\libgcc.a(_aeabi_uldivmod.o)
 .debug_abbrev  0x00007286       0xf2 c:/program files/microchip/xc32/v4.30/bin/bin/../../lib/gcc/pic32c/8.3.1/thumb/v7e-m+fp/hard\libgcc.a(_udivmoddi4.o)
 .debug_abbrev  0x00007378       0x14 c:/program files/microchip/xc32/v4.30/bin/bin/../../lib/gcc/pic32c/8.3.1/thumb/v7e-m+fp/hard\libgcc.a(_dvmd_tls.o)
 .debug_abbrev  0x0000738c       0x2e c:/program files/microchip/xc32/v4.30/bin/bin/../../lib/gcc/pic32c/8.3.1/../../../../pic32c/lib/thumb/v7e-m+fp/hard\libpic32c.a(close.o)
 .debug_abbrev  0x000073ba       0x2e c:/program files/microchip/xc32/v4.30/bin/bin/../../lib/gcc/pic32c/8.3.1/../../../../pic32c/lib/thumb/v7e-m+fp/hard\libpic32c.a(lseek.o)
 .debug_abbrev  0x000073e8       0x2e c:/program files/microchip/xc32/v4.30/bin/bin/../../lib/gcc/pic32c/8.3.1/../../../../pic32c/lib/thumb/v7e-m+fp/hard\libpic32c.a(sbrk.o)
 .debug_abbrev  0x00007416       0x2e c:/program files/microchip/xc32/v4.30/bin/bin/../../lib/gcc/pic32c/8.3.1/../../../../pic32c/lib/thumb/v7e-m+fp/hard\libpic32c.a(pic32_data_init_clear.o)
 .debug_abbrev  0x00007444       0x2e c:/program files/microchip/xc32/v4.30/bin/bin/../../lib/gcc/pic32c/8.3.1/../../../../pic32c/lib/thumb/v7e-m+fp/hard\libpic32c.a(pic32_data_init_copy.o)

.debug_aranges  0x00000000     0x17f0
 .debug_aranges
                0x00000000       0x20 build/default/production/_ext/1984496892/plib_clock.o
 .debug_aranges
                0x00000020       0x20 build/default/production/_ext/1986646378/plib_evsys.o
 .debug_aranges
                0x00000040       0x38 build/default/production/_ext/1865468468/plib_nvic.o
 .debug_aranges
                0x00000078       0xd8 build/default/production/_ext/1593096446/plib_nvmctrl.o
 .debug_aranges
                0x00000150       0x70 build/default/production/_ext/1865521619/plib_port.o
 .debug_aranges
                0x000001c0       0x28 build/default/production/_ext/163028504/xc32_monitor.o
 .debug_aranges
                0x000001e8       0x20 build/default/production/_ext/1171490990/initialization.o
 .debug_aranges
                0x00000208       0x48 build/default/production/_ext/1171490990/exceptions.o
 .debug_aranges
                0x00000250       0x20 build/default/production/_ext/1171490990/interrupts.o
 .debug_aranges
                0x00000270       0x28 build/default/production/_ext/1171490990/startup_xc32.o
 .debug_aranges
                0x00000298       0x40 build/default/production/_ext/1171490990/freertos_hooks.o
 .debug_aranges
                0x000002d8       0x78 build/default/production/_ext/246609638/port.o
 .debug_aranges
                0x00000350       0x38 build/default/production/_ext/1665200909/heap_1.o
 .debug_aranges
                0x00000388       0xc8 build/default/production/_ext/404212886/queue.o
 .debug_aranges
                0x00000450      0x178 build/default/production/_ext/404212886/FreeRTOS_tasks.o
 .debug_aranges
                0x000005c8       0x40 build/default/production/_ext/404212886/list.o
 .debug_aranges
                0x00000608       0x20 build/default/production/_ext/1360937237/main.o
 .debug_aranges
                0x00000628       0xa8 build/default/production/_ext/504274921/plib_sercom3_usart.o
 .debug_aranges
                0x000006d0       0x20 build/default/production/_ext/1100529066/drv_sdspi_file_system.o
 .debug_aranges
                0x000006f0       0x68 build/default/production/_ext/714983638/plib_sercom4_i2c_slave.o
 .debug_aranges
                0x00000758      0x130 build/default/production/_ext/1269487135/sys_fs_fat_interface.o
 .debug_aranges
                0x00000888      0x210 build/default/production/_ext/411819097/ff.o
 .debug_aranges
                0x00000a98       0xb0 build/default/production/_ext/60180175/plib_rtc_timer.o
 .debug_aranges
                0x00000b48      0x170 build/default/production/_ext/1269487135/sys_fs.o
 .debug_aranges
                0x00000cb8       0x58 build/default/production/_ext/565198302/diskio.o
 .debug_aranges
                0x00000d10      0x108 build/default/production/_ext/101884895/sys_time.o
 .debug_aranges
                0x00000e18       0x38 build/default/production/_ext/1171490990/tasks.o
 .debug_aranges
                0x00000e50       0x98 build/default/production/_ext/1269487135/sys_fs_media_manager.o
 .debug_aranges
                0x00000ee8       0x90 build/default/production/_ext/1529399856/osal_freertos.o
 .debug_aranges
                0x00000f78       0xb0 build/default/production/_ext/1100529066/drv_sdspi.o
 .debug_aranges
                0x00001028       0x40 build/default/production/_ext/1881668453/sys_int.o
 .debug_aranges
                0x00001068       0x80 build/default/production/_ext/1100529066/drv_sdspi_driver_interface.o
 .debug_aranges
                0x000010e8       0x68 build/default/production/_ext/60184501/plib_wdt.o
 .debug_aranges
                0x00001150       0x60 build/default/production/_ext/17022449/plib_sercom2_spi_master.o
 .debug_aranges
                0x000011b0       0x70 build/default/production/_ext/2070931557/drv_spi.o
 .debug_aranges
                0x00001220       0x50 build/default/production/_ext/1360937237/app.o
 .debug_aranges
                0x00001270       0x30 build/default/production/_ext/411819097/ffunicode.o
 .debug_aranges
                0x000012a0       0x20 build/default/production/pdu_packet.o
 .debug_aranges
                0x000012c0       0x28 c:/program files/microchip/xc32/v4.30/bin/bin/../../lib/gcc/pic32c/8.3.1/../../../../pic32c/lib/thumb/v7e-m+fp/hard\libpic32c.a(data_init.o)
 .debug_aranges
                0x000012e8       0x28 c:/program files/microchip/xc32/v4.30/bin/bin/../../lib/gcc/pic32c/8.3.1/../../../../pic32c/lib/thumb/v7e-m+fp/hard\libc-musl.a(__libc_start_main.o)
 .debug_aranges
                0x00001310       0x18 c:/program files/microchip/xc32/v4.30/bin/bin/../../lib/gcc/pic32c/8.3.1/../../../../pic32c/lib/thumb/v7e-m+fp/hard\libc-musl.a(libc.o)
 .debug_aranges
                0x00001328       0x70 c:/program files/microchip/xc32/v4.30/bin/bin/../../lib/gcc/pic32c/8.3.1/../../../../pic32c/lib/thumb/v7e-m+fp/hard\libc-musl.a(malloc.o)
 .debug_aranges
                0x00001398       0x20 c:/program files/microchip/xc32/v4.30/bin/bin/../../lib/gcc/pic32c/8.3.1/../../../../pic32c/lib/thumb/v7e-m+fp/hard\libc-musl.a(expand_heap.o)
 .debug_aranges
                0x000013b8       0x28 c:/program files/microchip/xc32/v4.30/bin/bin/../../lib/gcc/pic32c/8.3.1/../../../../pic32c/lib/thumb/v7e-m+fp/hard\libc-musl.a(stdin.o)
 .debug_aranges
                0x000013e0       0x30 c:/program files/microchip/xc32/v4.30/bin/bin/../../lib/gcc/pic32c/8.3.1/../../../../pic32c/lib/thumb/v7e-m+fp/hard\libc-musl.a(stdout.o)
 .debug_aranges
                0x00001410       0x20 c:/program files/microchip/xc32/v4.30/bin/bin/../../lib/gcc/pic32c/8.3.1/../../../../pic32c/lib/thumb/v7e-m+fp/hard\libc-musl.a(setbuf.o)
 .debug_aranges
                0x00001430       0x20 c:/program files/microchip/xc32/v4.30/bin/bin/../../lib/gcc/pic32c/8.3.1/../../../../pic32c/lib/thumb/v7e-m+fp/hard\libc-musl.a(memcmp.o)
 .debug_aranges
                0x00001450       0x20 c:/program files/microchip/xc32/v4.30/bin/bin/../../lib/gcc/pic32c/8.3.1/../../../../pic32c/lib/thumb/v7e-m+fp/hard\libc-musl.a(memcpy.o)
 .debug_aranges
                0x00001470       0x20 c:/program files/microchip/xc32/v4.30/bin/bin/../../lib/gcc/pic32c/8.3.1/../../../../pic32c/lib/thumb/v7e-m+fp/hard\libc-musl.a(memset.o)
 .debug_aranges
                0x00001490       0x20 c:/program files/microchip/xc32/v4.30/bin/bin/../../lib/gcc/pic32c/8.3.1/../../../../pic32c/lib/thumb/v7e-m+fp/hard\libc-musl.a(strlen.o)
 .debug_aranges
                0x000014b0       0x20 c:/program files/microchip/xc32/v4.30/bin/bin/../../lib/gcc/pic32c/8.3.1/../../../../pic32c/lib/thumb/v7e-m+fp/hard\libc-musl.a(strchr.o)
 .debug_aranges
                0x000014d0       0x20 c:/program files/microchip/xc32/v4.30/bin/bin/../../lib/gcc/pic32c/8.3.1/../../../../pic32c/lib/thumb/v7e-m+fp/hard\libc-musl.a(strchrnul.o)
 .debug_aranges
                0x000014f0       0x18 c:/program files/microchip/xc32/v4.30/bin/bin/../../lib/gcc/pic32c/8.3.1/../../../../pic32c/lib/thumb/v7e-m+fp/hard\libc-musl.a(__environ.o)
 .debug_aranges
                0x00001508       0x18 c:/program files/microchip/xc32/v4.30/bin/bin/../../lib/gcc/pic32c/8.3.1/../../../../pic32c/lib/thumb/v7e-m+fp/hard\libc-musl.a(__errno_location.o)
 .debug_aranges
                0x00001520       0x20 c:/program files/microchip/xc32/v4.30/bin/bin/../../lib/gcc/pic32c/8.3.1/../../../../pic32c/lib/thumb/v7e-m+fp/hard\libc-musl.a(__stdio_read.o)
 .debug_aranges
                0x00001540       0x20 c:/program files/microchip/xc32/v4.30/bin/bin/../../lib/gcc/pic32c/8.3.1/../../../../pic32c/lib/thumb/v7e-m+fp/hard\libc-musl.a(__towrite_rw.o)
 .debug_aranges
                0x00001560       0x28 c:/program files/microchip/xc32/v4.30/bin/bin/../../lib/gcc/pic32c/8.3.1/../../../../pic32c/lib/thumb/v7e-m+fp/hard\libc-musl.a(setvbuf.o)
 .debug_aranges
                0x00001588       0x20 c:/program files/microchip/xc32/v4.30/bin/bin/../../lib/gcc/pic32c/8.3.1/../../../../pic32c/lib/thumb/v7e-m+fp/hard\libc-musl.a(readv.o)
 .debug_aranges
                0x000015a8       0x28 c:/program files/microchip/xc32/v4.30/bin/bin/../../lib/gcc/pic32c/8.3.1/../../../../pic32c/lib/thumb/v7e-m+fp/hard\libc-musl.a(__init_stdio.o)
 .debug_aranges
                0x000015d0       0x28 c:/program files/microchip/xc32/v4.30/bin/bin/../../lib/gcc/pic32c/8.3.1/../../../../pic32c/lib/thumb/v7e-m+fp/hard\libc-musl.a(__out.o)
 .debug_aranges
                0x000015f8       0x30 c:/program files/microchip/xc32/v4.30/bin/bin/../../lib/gcc/pic32c/8.3.1/../../../../pic32c/lib/thumb/v7e-m+fp/hard\libc-musl.a(__stderr.o)
 .debug_aranges
                0x00001628       0x28 c:/program files/microchip/xc32/v4.30/bin/bin/../../lib/gcc/pic32c/8.3.1/../../../../pic32c/lib/thumb/v7e-m+fp/hard\libc-musl.a(__stdio_close.o)
 .debug_aranges
                0x00001650       0x28 c:/program files/microchip/xc32/v4.30/bin/bin/../../lib/gcc/pic32c/8.3.1/../../../../pic32c/lib/thumb/v7e-m+fp/hard\libc-musl.a(__stdio_write.o)
 .debug_aranges
                0x00001678       0x30 c:/program files/microchip/xc32/v4.30/bin/bin/../../lib/gcc/pic32c/8.3.1/../../../../pic32c/lib/thumb/v7e-m+fp/hard\libc-musl.a(__stdout.o)
 .debug_aranges
                0x000016a8       0x28 c:/program files/microchip/xc32/v4.30/bin/bin/../../lib/gcc/pic32c/8.3.1/../../../../pic32c/lib/thumb/v7e-m+fp/hard\libc-musl.a(__towrite.o)
 .debug_aranges
                0x000016d0       0x20 c:/program files/microchip/xc32/v4.30/bin/bin/../../lib/gcc/pic32c/8.3.1/../../../../pic32c/lib/thumb/v7e-m+fp/hard\libc-musl.a(writev.o)
 .debug_aranges
                0x000016f0       0x20 c:/program files/microchip/xc32/v4.30/bin/bin/../../lib/gcc/pic32c/8.3.1/thumb/v7e-m+fp/hard\libgcc.a(_aeabi_uldivmod.o)
 .debug_aranges
                0x00001710       0x20 c:/program files/microchip/xc32/v4.30/bin/bin/../../lib/gcc/pic32c/8.3.1/thumb/v7e-m+fp/hard\libgcc.a(_udivmoddi4.o)
 .debug_aranges
                0x00001730       0x20 c:/program files/microchip/xc32/v4.30/bin/bin/../../lib/gcc/pic32c/8.3.1/thumb/v7e-m+fp/hard\libgcc.a(_dvmd_tls.o)
 .debug_aranges
                0x00001750       0x20 c:/program files/microchip/xc32/v4.30/bin/bin/../../lib/gcc/pic32c/8.3.1/../../../../pic32c/lib/thumb/v7e-m+fp/hard\libpic32c.a(close.o)
 .debug_aranges
                0x00001770       0x20 c:/program files/microchip/xc32/v4.30/bin/bin/../../lib/gcc/pic32c/8.3.1/../../../../pic32c/lib/thumb/v7e-m+fp/hard\libpic32c.a(lseek.o)
 .debug_aranges
                0x00001790       0x20 c:/program files/microchip/xc32/v4.30/bin/bin/../../lib/gcc/pic32c/8.3.1/../../../../pic32c/lib/thumb/v7e-m+fp/hard\libpic32c.a(sbrk.o)
 .debug_aranges
                0x000017b0       0x20 c:/program files/microchip/xc32/v4.30/bin/bin/../../lib/gcc/pic32c/8.3.1/../../../../pic32c/lib/thumb/v7e-m+fp/hard\libpic32c.a(pic32_data_init_clear.o)
 .debug_aranges
                0x000017d0       0x20 c:/program files/microchip/xc32/v4.30/bin/bin/../../lib/gcc/pic32c/8.3.1/../../../../pic32c/lib/thumb/v7e-m+fp/hard\libpic32c.a(pic32_data_init_copy.o)

.debug_ranges   0x00000000     0x1bd8
 .debug_ranges  0x00000000       0x10 build/default/production/_ext/1984496892/plib_clock.o
 .debug_ranges  0x00000010       0x10 build/default/production/_ext/1986646378/plib_evsys.o
 .debug_ranges  0x00000020       0x28 build/default/production/_ext/1865468468/plib_nvic.o
 .debug_ranges  0x00000048       0xc8 build/default/production/_ext/1593096446/plib_nvmctrl.o
 .debug_ranges  0x00000110       0x60 build/default/production/_ext/1865521619/plib_port.o
 .debug_ranges  0x00000170       0x18 build/default/production/_ext/163028504/xc32_monitor.o
 .debug_ranges  0x00000188       0x10 build/default/production/_ext/1171490990/initialization.o
 .debug_ranges  0x00000198       0x38 build/default/production/_ext/1171490990/exceptions.o
 .debug_ranges  0x000001d0       0x10 build/default/production/_ext/1171490990/interrupts.o
 .debug_ranges  0x000001e0       0x18 build/default/production/_ext/1171490990/startup_xc32.o
 .debug_ranges  0x000001f8       0x30 build/default/production/_ext/1171490990/freertos_hooks.o
 .debug_ranges  0x00000228       0x68 build/default/production/_ext/246609638/port.o
 .debug_ranges  0x00000290       0x28 build/default/production/_ext/1665200909/heap_1.o
 .debug_ranges  0x000002b8      0x178 build/default/production/_ext/404212886/queue.o
 .debug_ranges  0x00000430      0x2c0 build/default/production/_ext/404212886/FreeRTOS_tasks.o
 .debug_ranges  0x000006f0       0x30 build/default/production/_ext/404212886/list.o
 .debug_ranges  0x00000720       0x10 build/default/production/_ext/1360937237/main.o
 .debug_ranges  0x00000730       0x98 build/default/production/_ext/504274921/plib_sercom3_usart.o
 .debug_ranges  0x000007c8       0x10 build/default/production/_ext/1100529066/drv_sdspi_file_system.o
 .debug_ranges  0x000007d8       0x78 build/default/production/_ext/714983638/plib_sercom4_i2c_slave.o
 .debug_ranges  0x00000850      0x120 build/default/production/_ext/1269487135/sys_fs_fat_interface.o
 .debug_ranges  0x00000970      0x3b8 build/default/production/_ext/411819097/ff.o
 .debug_ranges  0x00000d28       0xa0 build/default/production/_ext/60180175/plib_rtc_timer.o
 .debug_ranges  0x00000dc8      0x178 build/default/production/_ext/1269487135/sys_fs.o
 .debug_ranges  0x00000f40       0x60 build/default/production/_ext/565198302/diskio.o
 .debug_ranges  0x00000fa0      0x128 build/default/production/_ext/101884895/sys_time.o
 .debug_ranges  0x000010c8       0x28 build/default/production/_ext/1171490990/tasks.o
 .debug_ranges  0x000010f0      0x110 build/default/production/_ext/1269487135/sys_fs_media_manager.o
 .debug_ranges  0x00001200       0x80 build/default/production/_ext/1529399856/osal_freertos.o
 .debug_ranges  0x00001280      0x220 build/default/production/_ext/1100529066/drv_sdspi.o
 .debug_ranges  0x000014a0       0x30 build/default/production/_ext/1881668453/sys_int.o
 .debug_ranges  0x000014d0       0x70 build/default/production/_ext/1100529066/drv_sdspi_driver_interface.o
 .debug_ranges  0x00001540       0x58 build/default/production/_ext/60184501/plib_wdt.o
 .debug_ranges  0x00001598       0x68 build/default/production/_ext/17022449/plib_sercom2_spi_master.o
 .debug_ranges  0x00001600       0x78 build/default/production/_ext/2070931557/drv_spi.o
 .debug_ranges  0x00001678       0x40 build/default/production/_ext/1360937237/app.o
 .debug_ranges  0x000016b8       0x20 build/default/production/_ext/411819097/ffunicode.o
 .debug_ranges  0x000016d8       0x28 build/default/production/pdu_packet.o
 .debug_ranges  0x00001700       0x18 c:/program files/microchip/xc32/v4.30/bin/bin/../../lib/gcc/pic32c/8.3.1/../../../../pic32c/lib/thumb/v7e-m+fp/hard\libpic32c.a(data_init.o)
 .debug_ranges  0x00001718       0x40 c:/program files/microchip/xc32/v4.30/bin/bin/../../lib/gcc/pic32c/8.3.1/../../../../pic32c/lib/thumb/v7e-m+fp/hard\libc-musl.a(__libc_start_main.o)
 .debug_ranges  0x00001758      0x1a0 c:/program files/microchip/xc32/v4.30/bin/bin/../../lib/gcc/pic32c/8.3.1/../../../../pic32c/lib/thumb/v7e-m+fp/hard\libc-musl.a(malloc.o)
 .debug_ranges  0x000018f8       0x10 c:/program files/microchip/xc32/v4.30/bin/bin/../../lib/gcc/pic32c/8.3.1/../../../../pic32c/lib/thumb/v7e-m+fp/hard\libc-musl.a(expand_heap.o)
 .debug_ranges  0x00001908       0x18 c:/program files/microchip/xc32/v4.30/bin/bin/../../lib/gcc/pic32c/8.3.1/../../../../pic32c/lib/thumb/v7e-m+fp/hard\libc-musl.a(stdin.o)
 .debug_ranges  0x00001920       0x20 c:/program files/microchip/xc32/v4.30/bin/bin/../../lib/gcc/pic32c/8.3.1/../../../../pic32c/lib/thumb/v7e-m+fp/hard\libc-musl.a(stdout.o)
 .debug_ranges  0x00001940       0x10 c:/program files/microchip/xc32/v4.30/bin/bin/../../lib/gcc/pic32c/8.3.1/../../../../pic32c/lib/thumb/v7e-m+fp/hard\libc-musl.a(setbuf.o)
 .debug_ranges  0x00001950       0x10 c:/program files/microchip/xc32/v4.30/bin/bin/../../lib/gcc/pic32c/8.3.1/../../../../pic32c/lib/thumb/v7e-m+fp/hard\libc-musl.a(memcmp.o)
 .debug_ranges  0x00001960       0x10 c:/program files/microchip/xc32/v4.30/bin/bin/../../lib/gcc/pic32c/8.3.1/../../../../pic32c/lib/thumb/v7e-m+fp/hard\libc-musl.a(memcpy.o)
 .debug_ranges  0x00001970       0x10 c:/program files/microchip/xc32/v4.30/bin/bin/../../lib/gcc/pic32c/8.3.1/../../../../pic32c/lib/thumb/v7e-m+fp/hard\libc-musl.a(memset.o)
 .debug_ranges  0x00001980       0x10 c:/program files/microchip/xc32/v4.30/bin/bin/../../lib/gcc/pic32c/8.3.1/../../../../pic32c/lib/thumb/v7e-m+fp/hard\libc-musl.a(strlen.o)
 .debug_ranges  0x00001990       0x10 c:/program files/microchip/xc32/v4.30/bin/bin/../../lib/gcc/pic32c/8.3.1/../../../../pic32c/lib/thumb/v7e-m+fp/hard\libc-musl.a(strchr.o)
 .debug_ranges  0x000019a0       0x10 c:/program files/microchip/xc32/v4.30/bin/bin/../../lib/gcc/pic32c/8.3.1/../../../../pic32c/lib/thumb/v7e-m+fp/hard\libc-musl.a(strchrnul.o)
 .debug_ranges  0x000019b0       0x10 c:/program files/microchip/xc32/v4.30/bin/bin/../../lib/gcc/pic32c/8.3.1/../../../../pic32c/lib/thumb/v7e-m+fp/hard\libc-musl.a(__stdio_read.o)
 .debug_ranges  0x000019c0       0x10 c:/program files/microchip/xc32/v4.30/bin/bin/../../lib/gcc/pic32c/8.3.1/../../../../pic32c/lib/thumb/v7e-m+fp/hard\libc-musl.a(__towrite_rw.o)
 .debug_ranges  0x000019d0       0x18 c:/program files/microchip/xc32/v4.30/bin/bin/../../lib/gcc/pic32c/8.3.1/../../../../pic32c/lib/thumb/v7e-m+fp/hard\libc-musl.a(setvbuf.o)
 .debug_ranges  0x000019e8       0x10 c:/program files/microchip/xc32/v4.30/bin/bin/../../lib/gcc/pic32c/8.3.1/../../../../pic32c/lib/thumb/v7e-m+fp/hard\libc-musl.a(readv.o)
 .debug_ranges  0x000019f8       0x18 c:/program files/microchip/xc32/v4.30/bin/bin/../../lib/gcc/pic32c/8.3.1/../../../../pic32c/lib/thumb/v7e-m+fp/hard\libc-musl.a(__init_stdio.o)
 .debug_ranges  0x00001a10       0x18 c:/program files/microchip/xc32/v4.30/bin/bin/../../lib/gcc/pic32c/8.3.1/../../../../pic32c/lib/thumb/v7e-m+fp/hard\libc-musl.a(__out.o)
 .debug_ranges  0x00001a28       0x20 c:/program files/microchip/xc32/v4.30/bin/bin/../../lib/gcc/pic32c/8.3.1/../../../../pic32c/lib/thumb/v7e-m+fp/hard\libc-musl.a(__stderr.o)
 .debug_ranges  0x00001a48       0x18 c:/program files/microchip/xc32/v4.30/bin/bin/../../lib/gcc/pic32c/8.3.1/../../../../pic32c/lib/thumb/v7e-m+fp/hard\libc-musl.a(__stdio_close.o)
 .debug_ranges  0x00001a60       0x30 c:/program files/microchip/xc32/v4.30/bin/bin/../../lib/gcc/pic32c/8.3.1/../../../../pic32c/lib/thumb/v7e-m+fp/hard\libc-musl.a(__stdio_write.o)
 .debug_ranges  0x00001a90       0x20 c:/program files/microchip/xc32/v4.30/bin/bin/../../lib/gcc/pic32c/8.3.1/../../../../pic32c/lib/thumb/v7e-m+fp/hard\libc-musl.a(__stdout.o)
 .debug_ranges  0x00001ab0       0x18 c:/program files/microchip/xc32/v4.30/bin/bin/../../lib/gcc/pic32c/8.3.1/../../../../pic32c/lib/thumb/v7e-m+fp/hard\libc-musl.a(__towrite.o)
 .debug_ranges  0x00001ac8       0x10 c:/program files/microchip/xc32/v4.30/bin/bin/../../lib/gcc/pic32c/8.3.1/../../../../pic32c/lib/thumb/v7e-m+fp/hard\libc-musl.a(writev.o)
 .debug_ranges  0x00001ad8       0xb0 c:/program files/microchip/xc32/v4.30/bin/bin/../../lib/gcc/pic32c/8.3.1/thumb/v7e-m+fp/hard\libgcc.a(_udivmoddi4.o)
 .debug_ranges  0x00001b88       0x10 c:/program files/microchip/xc32/v4.30/bin/bin/../../lib/gcc/pic32c/8.3.1/../../../../pic32c/lib/thumb/v7e-m+fp/hard\libpic32c.a(close.o)
 .debug_ranges  0x00001b98       0x10 c:/program files/microchip/xc32/v4.30/bin/bin/../../lib/gcc/pic32c/8.3.1/../../../../pic32c/lib/thumb/v7e-m+fp/hard\libpic32c.a(lseek.o)
 .debug_ranges  0x00001ba8       0x10 c:/program files/microchip/xc32/v4.30/bin/bin/../../lib/gcc/pic32c/8.3.1/../../../../pic32c/lib/thumb/v7e-m+fp/hard\libpic32c.a(sbrk.o)
 .debug_ranges  0x00001bb8       0x10 c:/program files/microchip/xc32/v4.30/bin/bin/../../lib/gcc/pic32c/8.3.1/../../../../pic32c/lib/thumb/v7e-m+fp/hard\libpic32c.a(pic32_data_init_clear.o)
 .debug_ranges  0x00001bc8       0x10 c:/program files/microchip/xc32/v4.30/bin/bin/../../lib/gcc/pic32c/8.3.1/../../../../pic32c/lib/thumb/v7e-m+fp/hard\libpic32c.a(pic32_data_init_copy.o)

.debug_line     0x00000000    0x18194
 .debug_line    0x00000000      0x295 build/default/production/_ext/1984496892/plib_clock.o
 .debug_line    0x00000295       0x66 build/default/production/_ext/1986646378/plib_evsys.o
 .debug_line    0x000002fb      0x4d4 build/default/production/_ext/1865468468/plib_nvic.o
 .debug_line    0x000007cf      0x5c2 build/default/production/_ext/1593096446/plib_nvmctrl.o
 .debug_line    0x00000d91      0x459 build/default/production/_ext/1865521619/plib_port.o
 .debug_line    0x000011ea      0x151 build/default/production/_ext/163028504/xc32_monitor.o
 .debug_line    0x0000133b      0x69b build/default/production/_ext/1171490990/initialization.o
 .debug_line    0x000019d6       0xc6 build/default/production/_ext/1171490990/exceptions.o
 .debug_line    0x00001a9c       0xe9 build/default/production/_ext/1171490990/interrupts.o
 .debug_line    0x00001b85      0x246 build/default/production/_ext/1171490990/startup_xc32.o
 .debug_line    0x00001dcb      0x1db build/default/production/_ext/1171490990/freertos_hooks.o
 .debug_line    0x00001fa6      0x366 build/default/production/_ext/246609638/port.o
 .debug_line    0x0000230c      0x21e build/default/production/_ext/1665200909/heap_1.o
 .debug_line    0x0000252a      0xef9 build/default/production/_ext/404212886/queue.o
 .debug_line    0x00003423     0x18c7 build/default/production/_ext/404212886/FreeRTOS_tasks.o
 .debug_line    0x00004cea      0x2e4 build/default/production/_ext/404212886/list.o
 .debug_line    0x00004fce       0x6d build/default/production/_ext/1360937237/main.o
 .debug_line    0x0000503b      0x646 build/default/production/_ext/504274921/plib_sercom3_usart.o
 .debug_line    0x00005681      0x177 build/default/production/_ext/1100529066/drv_sdspi_file_system.o
 .debug_line    0x000057f8      0x3cc build/default/production/_ext/714983638/plib_sercom4_i2c_slave.o
 .debug_line    0x00005bc4      0x971 build/default/production/_ext/1269487135/sys_fs_fat_interface.o
 .debug_line    0x00006535     0x4d81 build/default/production/_ext/411819097/ff.o
 .debug_line    0x0000b2b6      0x434 build/default/production/_ext/60180175/plib_rtc_timer.o
 .debug_line    0x0000b6ea     0x2812 build/default/production/_ext/1269487135/sys_fs.o
 .debug_line    0x0000defc      0x385 build/default/production/_ext/565198302/diskio.o
 .debug_line    0x0000e281      0xe6e build/default/production/_ext/101884895/sys_time.o
 .debug_line    0x0000f0ef      0x284 build/default/production/_ext/1171490990/tasks.o
 .debug_line    0x0000f373      0xde3 build/default/production/_ext/1269487135/sys_fs_media_manager.o
 .debug_line    0x00010156      0x41f build/default/production/_ext/1529399856/osal_freertos.o
 .debug_line    0x00010575     0x154b build/default/production/_ext/1100529066/drv_sdspi.o
 .debug_line    0x00011ac0      0x2bf build/default/production/_ext/1881668453/sys_int.o
 .debug_line    0x00011d7f      0x50d build/default/production/_ext/1100529066/drv_sdspi_driver_interface.o
 .debug_line    0x0001228c      0x2bf build/default/production/_ext/60184501/plib_wdt.o
 .debug_line    0x0001254b      0x77a build/default/production/_ext/17022449/plib_sercom2_spi_master.o
 .debug_line    0x00012cc5      0x9c3 build/default/production/_ext/2070931557/drv_spi.o
 .debug_line    0x00013688      0x37f build/default/production/_ext/1360937237/app.o
 .debug_line    0x00013a07      0x2bc build/default/production/_ext/411819097/ffunicode.o
 .debug_line    0x00013cc3      0x9a4 build/default/production/pdu_packet.o
 .debug_line    0x00014667       0xe9 c:/program files/microchip/xc32/v4.30/bin/bin/../../lib/gcc/pic32c/8.3.1/../../../../pic32c/lib/thumb/v7e-m+fp/hard\libpic32c.a(data_init.o)
 .debug_line    0x00014750      0x1d5 c:/program files/microchip/xc32/v4.30/bin/bin/../../lib/gcc/pic32c/8.3.1/../../../../pic32c/lib/thumb/v7e-m+fp/hard\libc-musl.a(__libc_start_main.o)
 .debug_line    0x00014925       0xbc c:/program files/microchip/xc32/v4.30/bin/bin/../../lib/gcc/pic32c/8.3.1/../../../../pic32c/lib/thumb/v7e-m+fp/hard\libc-musl.a(libc.o)
 .debug_line    0x000149e1      0xabd c:/program files/microchip/xc32/v4.30/bin/bin/../../lib/gcc/pic32c/8.3.1/../../../../pic32c/lib/thumb/v7e-m+fp/hard\libc-musl.a(malloc.o)
 .debug_line    0x0001549e       0xf6 c:/program files/microchip/xc32/v4.30/bin/bin/../../lib/gcc/pic32c/8.3.1/../../../../pic32c/lib/thumb/v7e-m+fp/hard\libc-musl.a(expand_heap.o)
 .debug_line    0x00015594      0x1da c:/program files/microchip/xc32/v4.30/bin/bin/../../lib/gcc/pic32c/8.3.1/../../../../pic32c/lib/thumb/v7e-m+fp/hard\libc-musl.a(stdin.o)
 .debug_line    0x0001576e      0x18f c:/program files/microchip/xc32/v4.30/bin/bin/../../lib/gcc/pic32c/8.3.1/../../../../pic32c/lib/thumb/v7e-m+fp/hard\libc-musl.a(stdout.o)
 .debug_line    0x000158fd      0x139 c:/program files/microchip/xc32/v4.30/bin/bin/../../lib/gcc/pic32c/8.3.1/../../../../pic32c/lib/thumb/v7e-m+fp/hard\libc-musl.a(setbuf.o)
 .debug_line    0x00015a36       0xe6 c:/program files/microchip/xc32/v4.30/bin/bin/../../lib/gcc/pic32c/8.3.1/../../../../pic32c/lib/thumb/v7e-m+fp/hard\libc-musl.a(memcmp.o)
 .debug_line    0x00015b1c       0xf2 c:/program files/microchip/xc32/v4.30/bin/bin/../../lib/gcc/pic32c/8.3.1/../../../../pic32c/lib/thumb/v7e-m+fp/hard\libc-musl.a(memcpy.o)
 .debug_line    0x00015c0e       0xe9 c:/program files/microchip/xc32/v4.30/bin/bin/../../lib/gcc/pic32c/8.3.1/../../../../pic32c/lib/thumb/v7e-m+fp/hard\libc-musl.a(memset.o)
 .debug_line    0x00015cf7       0xe5 c:/program files/microchip/xc32/v4.30/bin/bin/../../lib/gcc/pic32c/8.3.1/../../../../pic32c/lib/thumb/v7e-m+fp/hard\libc-musl.a(strlen.o)
 .debug_line    0x00015ddc       0xb9 c:/program files/microchip/xc32/v4.30/bin/bin/../../lib/gcc/pic32c/8.3.1/../../../../pic32c/lib/thumb/v7e-m+fp/hard\libc-musl.a(strchr.o)
 .debug_line    0x00015e95      0x194 c:/program files/microchip/xc32/v4.30/bin/bin/../../lib/gcc/pic32c/8.3.1/../../../../pic32c/lib/thumb/v7e-m+fp/hard\libc-musl.a(strchrnul.o)
 .debug_line    0x00016029      0x109 c:/program files/microchip/xc32/v4.30/bin/bin/../../lib/gcc/pic32c/8.3.1/../../../../pic32c/lib/thumb/v7e-m+fp/hard\libc-musl.a(__environ.o)
 .debug_line    0x00016132       0xa1 c:/program files/microchip/xc32/v4.30/bin/bin/../../lib/gcc/pic32c/8.3.1/../../../../pic32c/lib/thumb/v7e-m+fp/hard\libc-musl.a(__errno_location.o)
 .debug_line    0x000161d3      0x24a c:/program files/microchip/xc32/v4.30/bin/bin/../../lib/gcc/pic32c/8.3.1/../../../../pic32c/lib/thumb/v7e-m+fp/hard\libc-musl.a(__stdio_read.o)
 .debug_line    0x0001641d      0x1f4 c:/program files/microchip/xc32/v4.30/bin/bin/../../lib/gcc/pic32c/8.3.1/../../../../pic32c/lib/thumb/v7e-m+fp/hard\libc-musl.a(__towrite_rw.o)
 .debug_line    0x00016611      0x22a c:/program files/microchip/xc32/v4.30/bin/bin/../../lib/gcc/pic32c/8.3.1/../../../../pic32c/lib/thumb/v7e-m+fp/hard\libc-musl.a(setvbuf.o)
 .debug_line    0x0001683b      0x162 c:/program files/microchip/xc32/v4.30/bin/bin/../../lib/gcc/pic32c/8.3.1/../../../../pic32c/lib/thumb/v7e-m+fp/hard\libc-musl.a(readv.o)
 .debug_line    0x0001699d       0xcf c:/program files/microchip/xc32/v4.30/bin/bin/../../lib/gcc/pic32c/8.3.1/../../../../pic32c/lib/thumb/v7e-m+fp/hard\libc-musl.a(__init_stdio.o)
 .debug_line    0x00016a6c      0x243 c:/program files/microchip/xc32/v4.30/bin/bin/../../lib/gcc/pic32c/8.3.1/../../../../pic32c/lib/thumb/v7e-m+fp/hard\libc-musl.a(__out.o)
 .debug_line    0x00016caf      0x1e5 c:/program files/microchip/xc32/v4.30/bin/bin/../../lib/gcc/pic32c/8.3.1/../../../../pic32c/lib/thumb/v7e-m+fp/hard\libc-musl.a(__stderr.o)
 .debug_line    0x00016e94      0x2f8 c:/program files/microchip/xc32/v4.30/bin/bin/../../lib/gcc/pic32c/8.3.1/../../../../pic32c/lib/thumb/v7e-m+fp/hard\libc-musl.a(__stdio_close.o)
 .debug_line    0x0001718c      0x333 c:/program files/microchip/xc32/v4.30/bin/bin/../../lib/gcc/pic32c/8.3.1/../../../../pic32c/lib/thumb/v7e-m+fp/hard\libc-musl.a(__stdio_write.o)
 .debug_line    0x000174bf      0x1e5 c:/program files/microchip/xc32/v4.30/bin/bin/../../lib/gcc/pic32c/8.3.1/../../../../pic32c/lib/thumb/v7e-m+fp/hard\libc-musl.a(__stdout.o)
 .debug_line    0x000176a4      0x18b c:/program files/microchip/xc32/v4.30/bin/bin/../../lib/gcc/pic32c/8.3.1/../../../../pic32c/lib/thumb/v7e-m+fp/hard\libc-musl.a(__towrite.o)
 .debug_line    0x0001782f      0x163 c:/program files/microchip/xc32/v4.30/bin/bin/../../lib/gcc/pic32c/8.3.1/../../../../pic32c/lib/thumb/v7e-m+fp/hard\libc-musl.a(writev.o)
 .debug_line    0x00017992       0x98 c:/program files/microchip/xc32/v4.30/bin/bin/../../lib/gcc/pic32c/8.3.1/thumb/v7e-m+fp/hard\libgcc.a(_aeabi_uldivmod.o)
 .debug_line    0x00017a2a      0x367 c:/program files/microchip/xc32/v4.30/bin/bin/../../lib/gcc/pic32c/8.3.1/thumb/v7e-m+fp/hard\libgcc.a(_udivmoddi4.o)
 .debug_line    0x00017d91       0x98 c:/program files/microchip/xc32/v4.30/bin/bin/../../lib/gcc/pic32c/8.3.1/thumb/v7e-m+fp/hard\libgcc.a(_dvmd_tls.o)
 .debug_line    0x00017e29       0x9d c:/program files/microchip/xc32/v4.30/bin/bin/../../lib/gcc/pic32c/8.3.1/../../../../pic32c/lib/thumb/v7e-m+fp/hard\libpic32c.a(close.o)
 .debug_line    0x00017ec6       0x9d c:/program files/microchip/xc32/v4.30/bin/bin/../../lib/gcc/pic32c/8.3.1/../../../../pic32c/lib/thumb/v7e-m+fp/hard\libpic32c.a(lseek.o)
 .debug_line    0x00017f63       0xbd c:/program files/microchip/xc32/v4.30/bin/bin/../../lib/gcc/pic32c/8.3.1/../../../../pic32c/lib/thumb/v7e-m+fp/hard\libpic32c.a(sbrk.o)
 .debug_line    0x00018020       0xb6 c:/program files/microchip/xc32/v4.30/bin/bin/../../lib/gcc/pic32c/8.3.1/../../../../pic32c/lib/thumb/v7e-m+fp/hard\libpic32c.a(pic32_data_init_clear.o)
 .debug_line    0x000180d6       0xbe c:/program files/microchip/xc32/v4.30/bin/bin/../../lib/gcc/pic32c/8.3.1/../../../../pic32c/lib/thumb/v7e-m+fp/hard\libpic32c.a(pic32_data_init_copy.o)

.debug_str      0x00000000     0x1c2b
 .debug_str     0x00000000       0x1e build/default/production/_ext/1984496892/plib_clock.o
 .debug_str     0x0000001e        0x0 build/default/production/_ext/1986646378/plib_evsys.o
 .debug_str     0x0000001e        0xa build/default/production/_ext/1865468468/plib_nvic.o
 .debug_str     0x00000028       0x20 build/default/production/_ext/1593096446/plib_nvmctrl.o
 .debug_str     0x00000048        0xb build/default/production/_ext/1865521619/plib_port.o
 .debug_str     0x00000053       0x27 build/default/production/_ext/163028504/xc32_monitor.o
 .debug_str     0x0000007a      0x15f build/default/production/_ext/1171490990/initialization.o
 .debug_str     0x000001d9        0x0 build/default/production/_ext/1171490990/exceptions.o
 .debug_str     0x000001d9        0x0 build/default/production/_ext/1171490990/interrupts.o
 .debug_str     0x000001d9       0x2f build/default/production/_ext/1171490990/startup_xc32.o
 .debug_str     0x00000208       0x25 build/default/production/_ext/1171490990/freertos_hooks.o
 .debug_str     0x0000022d       0x26 build/default/production/_ext/246609638/port.o
 .debug_str     0x00000253       0x3c build/default/production/_ext/1665200909/heap_1.o
 .debug_str     0x0000028f      0x2a6 build/default/production/_ext/404212886/queue.o
 .debug_str     0x00000535      0x2a9 build/default/production/_ext/404212886/FreeRTOS_tasks.o
 .debug_str     0x000007de       0x2b build/default/production/_ext/404212886/list.o
 .debug_str     0x00000809       0x19 build/default/production/_ext/1360937237/main.o
 .debug_str     0x00000822      0x135 build/default/production/_ext/504274921/plib_sercom3_usart.o
 .debug_str     0x00000957       0x1e build/default/production/_ext/1100529066/drv_sdspi_file_system.o
 .debug_str     0x00000975      0x120 build/default/production/_ext/714983638/plib_sercom4_i2c_slave.o
 .debug_str     0x00000a95       0x96 build/default/production/_ext/1269487135/sys_fs_fat_interface.o
 .debug_str     0x00000b2b       0x80 build/default/production/_ext/411819097/ff.o
 .debug_str     0x00000bab      0x12d build/default/production/_ext/60180175/plib_rtc_timer.o
 .debug_str     0x00000cd8      0x13d build/default/production/_ext/1269487135/sys_fs.o
 .debug_str     0x00000e15       0xd7 build/default/production/_ext/565198302/diskio.o
 .debug_str     0x00000eec      0x11a build/default/production/_ext/101884895/sys_time.o
 .debug_str     0x00001006       0x5f build/default/production/_ext/1171490990/tasks.o
 .debug_str     0x00001065       0xd2 build/default/production/_ext/1269487135/sys_fs_media_manager.o
 .debug_str     0x00001137      0x13b build/default/production/_ext/1529399856/osal_freertos.o
 .debug_str     0x00001272      0x2c0 build/default/production/_ext/1100529066/drv_sdspi.o
 .debug_str     0x00001532       0x32 build/default/production/_ext/1881668453/sys_int.o
 .debug_str     0x00001564       0xd0 build/default/production/_ext/1100529066/drv_sdspi_driver_interface.o
 .debug_str     0x00001634        0x0 build/default/production/_ext/60184501/plib_wdt.o
 .debug_str     0x00001634      0x160 build/default/production/_ext/17022449/plib_sercom2_spi_master.o
 .debug_str     0x00001794      0x10d build/default/production/_ext/2070931557/drv_spi.o
 .debug_str     0x000018a1       0xdb build/default/production/_ext/1360937237/app.o
 .debug_str     0x0000197c        0x0 build/default/production/_ext/411819097/ffunicode.o
 .debug_str     0x0000197c       0x5e build/default/production/pdu_packet.o
 .debug_str     0x000019da        0x0 c:/program files/microchip/xc32/v4.30/bin/bin/../../lib/gcc/pic32c/8.3.1/../../../../pic32c/lib/thumb/v7e-m+fp/hard\libpic32c.a(data_init.o)
 .debug_str     0x000019da        0x0 c:/program files/microchip/xc32/v4.30/bin/bin/../../lib/gcc/pic32c/8.3.1/../../../../pic32c/lib/thumb/v7e-m+fp/hard\libc-musl.a(__libc_start_main.o)
 .debug_str     0x000019da        0x0 c:/program files/microchip/xc32/v4.30/bin/bin/../../lib/gcc/pic32c/8.3.1/../../../../pic32c/lib/thumb/v7e-m+fp/hard\libc-musl.a(libc.o)
 .debug_str     0x000019da       0x13 c:/program files/microchip/xc32/v4.30/bin/bin/../../lib/gcc/pic32c/8.3.1/../../../../pic32c/lib/thumb/v7e-m+fp/hard\libc-musl.a(malloc.o)
 .debug_str     0x000019ed        0x0 c:/program files/microchip/xc32/v4.30/bin/bin/../../lib/gcc/pic32c/8.3.1/../../../../pic32c/lib/thumb/v7e-m+fp/hard\libc-musl.a(expand_heap.o)
 .debug_str     0x000019ed        0xf c:/program files/microchip/xc32/v4.30/bin/bin/../../lib/gcc/pic32c/8.3.1/../../../../pic32c/lib/thumb/v7e-m+fp/hard\libc-musl.a(stdin.o)
 .debug_str     0x000019fc       0x11 c:/program files/microchip/xc32/v4.30/bin/bin/../../lib/gcc/pic32c/8.3.1/../../../../pic32c/lib/thumb/v7e-m+fp/hard\libc-musl.a(stdout.o)
 .debug_str     0x00001a0d        0x0 c:/program files/microchip/xc32/v4.30/bin/bin/../../lib/gcc/pic32c/8.3.1/../../../../pic32c/lib/thumb/v7e-m+fp/hard\libc-musl.a(setbuf.o)
 .debug_str     0x00001a0d        0x0 c:/program files/microchip/xc32/v4.30/bin/bin/../../lib/gcc/pic32c/8.3.1/../../../../pic32c/lib/thumb/v7e-m+fp/hard\libc-musl.a(memcmp.o)
 .debug_str     0x00001a0d        0x0 c:/program files/microchip/xc32/v4.30/bin/bin/../../lib/gcc/pic32c/8.3.1/../../../../pic32c/lib/thumb/v7e-m+fp/hard\libc-musl.a(memcpy.o)
 .debug_str     0x00001a0d        0x0 c:/program files/microchip/xc32/v4.30/bin/bin/../../lib/gcc/pic32c/8.3.1/../../../../pic32c/lib/thumb/v7e-m+fp/hard\libc-musl.a(memset.o)
 .debug_str     0x00001a0d        0x0 c:/program files/microchip/xc32/v4.30/bin/bin/../../lib/gcc/pic32c/8.3.1/../../../../pic32c/lib/thumb/v7e-m+fp/hard\libc-musl.a(strlen.o)
 .debug_str     0x00001a0d        0xc c:/program files/microchip/xc32/v4.30/bin/bin/../../lib/gcc/pic32c/8.3.1/../../../../pic32c/lib/thumb/v7e-m+fp/hard\libc-musl.a(strchr.o)
 .debug_str     0x00001a19        0x0 c:/program files/microchip/xc32/v4.30/bin/bin/../../lib/gcc/pic32c/8.3.1/../../../../pic32c/lib/thumb/v7e-m+fp/hard\libc-musl.a(strchrnul.o)
 .debug_str     0x00001a19        0x0 c:/program files/microchip/xc32/v4.30/bin/bin/../../lib/gcc/pic32c/8.3.1/../../../../pic32c/lib/thumb/v7e-m+fp/hard\libc-musl.a(__environ.o)
 .debug_str     0x00001a19        0x0 c:/program files/microchip/xc32/v4.30/bin/bin/../../lib/gcc/pic32c/8.3.1/../../../../pic32c/lib/thumb/v7e-m+fp/hard\libc-musl.a(__errno_location.o)
 .debug_str     0x00001a19        0x0 c:/program files/microchip/xc32/v4.30/bin/bin/../../lib/gcc/pic32c/8.3.1/../../../../pic32c/lib/thumb/v7e-m+fp/hard\libc-musl.a(__stdio_read.o)
 .debug_str     0x00001a19        0x0 c:/program files/microchip/xc32/v4.30/bin/bin/../../lib/gcc/pic32c/8.3.1/../../../../pic32c/lib/thumb/v7e-m+fp/hard\libc-musl.a(__towrite_rw.o)
 .debug_str     0x00001a19       0x10 c:/program files/microchip/xc32/v4.30/bin/bin/../../lib/gcc/pic32c/8.3.1/../../../../pic32c/lib/thumb/v7e-m+fp/hard\libc-musl.a(setvbuf.o)
 .debug_str     0x00001a29        0x0 c:/program files/microchip/xc32/v4.30/bin/bin/../../lib/gcc/pic32c/8.3.1/../../../../pic32c/lib/thumb/v7e-m+fp/hard\libc-musl.a(readv.o)
 .debug_str     0x00001a29        0x0 c:/program files/microchip/xc32/v4.30/bin/bin/../../lib/gcc/pic32c/8.3.1/../../../../pic32c/lib/thumb/v7e-m+fp/hard\libc-musl.a(__init_stdio.o)
 .debug_str     0x00001a29        0x0 c:/program files/microchip/xc32/v4.30/bin/bin/../../lib/gcc/pic32c/8.3.1/../../../../pic32c/lib/thumb/v7e-m+fp/hard\libc-musl.a(__out.o)
 .debug_str     0x00001a29       0x11 c:/program files/microchip/xc32/v4.30/bin/bin/../../lib/gcc/pic32c/8.3.1/../../../../pic32c/lib/thumb/v7e-m+fp/hard\libc-musl.a(__stderr.o)
 .debug_str     0x00001a3a        0x0 c:/program files/microchip/xc32/v4.30/bin/bin/../../lib/gcc/pic32c/8.3.1/../../../../pic32c/lib/thumb/v7e-m+fp/hard\libc-musl.a(__stdio_close.o)
 .debug_str     0x00001a3a        0xa c:/program files/microchip/xc32/v4.30/bin/bin/../../lib/gcc/pic32c/8.3.1/../../../../pic32c/lib/thumb/v7e-m+fp/hard\libc-musl.a(__stdio_write.o)
 .debug_str     0x00001a44       0x11 c:/program files/microchip/xc32/v4.30/bin/bin/../../lib/gcc/pic32c/8.3.1/../../../../pic32c/lib/thumb/v7e-m+fp/hard\libc-musl.a(__stdout.o)
 .debug_str     0x00001a55        0x0 c:/program files/microchip/xc32/v4.30/bin/bin/../../lib/gcc/pic32c/8.3.1/../../../../pic32c/lib/thumb/v7e-m+fp/hard\libc-musl.a(__towrite.o)
 .debug_str     0x00001a55        0x0 c:/program files/microchip/xc32/v4.30/bin/bin/../../lib/gcc/pic32c/8.3.1/../../../../pic32c/lib/thumb/v7e-m+fp/hard\libc-musl.a(writev.o)
 .debug_str     0x00001a55       0xe9 c:/program files/microchip/xc32/v4.30/bin/bin/../../lib/gcc/pic32c/8.3.1/thumb/v7e-m+fp/hard\libgcc.a(_aeabi_uldivmod.o)
 .debug_str     0x00001b3e        0x0 c:/program files/microchip/xc32/v4.30/bin/bin/../../lib/gcc/pic32c/8.3.1/thumb/v7e-m+fp/hard\libgcc.a(_udivmoddi4.o)
 .debug_str     0x00001b3e       0xed c:/program files/microchip/xc32/v4.30/bin/bin/../../lib/gcc/pic32c/8.3.1/thumb/v7e-m+fp/hard\libgcc.a(_dvmd_tls.o)
 .debug_str     0x00001c2b        0x0 c:/program files/microchip/xc32/v4.30/bin/bin/../../lib/gcc/pic32c/8.3.1/../../../../pic32c/lib/thumb/v7e-m+fp/hard\libpic32c.a(close.o)
 .debug_str     0x00001c2b        0x0 c:/program files/microchip/xc32/v4.30/bin/bin/../../lib/gcc/pic32c/8.3.1/../../../../pic32c/lib/thumb/v7e-m+fp/hard\libpic32c.a(lseek.o)
 .debug_str     0x00001c2b        0x0 c:/program files/microchip/xc32/v4.30/bin/bin/../../lib/gcc/pic32c/8.3.1/../../../../pic32c/lib/thumb/v7e-m+fp/hard\libpic32c.a(sbrk.o)
 .debug_str     0x00001c2b        0x0 c:/program files/microchip/xc32/v4.30/bin/bin/../../lib/gcc/pic32c/8.3.1/../../../../pic32c/lib/thumb/v7e-m+fp/hard\libpic32c.a(pic32_data_init_clear.o)
 .debug_str     0x00001c2b        0x0 c:/program files/microchip/xc32/v4.30/bin/bin/../../lib/gcc/pic32c/8.3.1/../../../../pic32c/lib/thumb/v7e-m+fp/hard\libpic32c.a(pic32_data_init_copy.o)

.debug_frame    0x00000000     0x3b98
 .debug_frame   0x00000000       0x20 build/default/production/_ext/1984496892/plib_clock.o
 .debug_frame   0x00000020       0x20 build/default/production/_ext/1986646378/plib_evsys.o
 .debug_frame   0x00000040       0x50 build/default/production/_ext/1865468468/plib_nvic.o
 .debug_frame   0x00000090      0x1dc build/default/production/_ext/1593096446/plib_nvmctrl.o
 .debug_frame   0x0000026c       0xdc build/default/production/_ext/1865521619/plib_port.o
 .debug_frame   0x00000348       0x48 build/default/production/_ext/163028504/xc32_monitor.o
 .debug_frame   0x00000390       0x28 build/default/production/_ext/1171490990/initialization.o
 .debug_frame   0x000003b8       0x70 build/default/production/_ext/1171490990/exceptions.o
 .debug_frame   0x00000428       0x20 build/default/production/_ext/1171490990/interrupts.o
 .debug_frame   0x00000448       0x38 build/default/production/_ext/1171490990/startup_xc32.o
 .debug_frame   0x00000480       0x6c build/default/production/_ext/1171490990/freertos_hooks.o
 .debug_frame   0x000004ec       0xe8 build/default/production/_ext/246609638/port.o
 .debug_frame   0x000005d4       0x5c build/default/production/_ext/1665200909/heap_1.o
 .debug_frame   0x00000630      0x29c build/default/production/_ext/404212886/queue.o
 .debug_frame   0x000008cc      0x4a0 build/default/production/_ext/404212886/FreeRTOS_tasks.o
 .debug_frame   0x00000d6c       0x6c build/default/production/_ext/404212886/list.o
 .debug_frame   0x00000dd8       0x28 build/default/production/_ext/1360937237/main.o
 .debug_frame   0x00000e00      0x17c build/default/production/_ext/504274921/plib_sercom3_usart.o
 .debug_frame   0x00000f7c       0x28 build/default/production/_ext/1100529066/drv_sdspi_file_system.o
 .debug_frame   0x00000fa4       0xbc build/default/production/_ext/714983638/plib_sercom4_i2c_slave.o
 .debug_frame   0x00001060      0x36c build/default/production/_ext/1269487135/sys_fs_fat_interface.o
 .debug_frame   0x000013cc      0x8d4 build/default/production/_ext/411819097/ff.o
 .debug_frame   0x00001ca0      0x148 build/default/production/_ext/60180175/plib_rtc_timer.o
 .debug_frame   0x00001de8      0x5c0 build/default/production/_ext/1269487135/sys_fs.o
 .debug_frame   0x000023a8       0xd0 build/default/production/_ext/565198302/diskio.o
 .debug_frame   0x00002478      0x380 build/default/production/_ext/101884895/sys_time.o
 .debug_frame   0x000027f8       0x7c build/default/production/_ext/1171490990/tasks.o
 .debug_frame   0x00002874      0x1e0 build/default/production/_ext/1269487135/sys_fs_media_manager.o
 .debug_frame   0x00002a54      0x180 build/default/production/_ext/1529399856/osal_freertos.o
 .debug_frame   0x00002bd4      0x258 build/default/production/_ext/1100529066/drv_sdspi.o
 .debug_frame   0x00002e2c       0x84 build/default/production/_ext/1881668453/sys_int.o
 .debug_frame   0x00002eb0      0x14c build/default/production/_ext/1100529066/drv_sdspi_driver_interface.o
 .debug_frame   0x00002ffc       0xb0 build/default/production/_ext/60184501/plib_wdt.o
 .debug_frame   0x000030ac       0xe0 build/default/production/_ext/17022449/plib_sercom2_spi_master.o
 .debug_frame   0x0000318c      0x15c build/default/production/_ext/2070931557/drv_spi.o
 .debug_frame   0x000032e8       0xc8 build/default/production/_ext/1360937237/app.o
 .debug_frame   0x000033b0       0x5c build/default/production/_ext/411819097/ffunicode.o
 .debug_frame   0x0000340c       0x40 build/default/production/pdu_packet.o
 .debug_frame   0x0000344c       0x3c c:/program files/microchip/xc32/v4.30/bin/bin/../../lib/gcc/pic32c/8.3.1/../../../../pic32c/lib/thumb/v7e-m+fp/hard\libpic32c.a(data_init.o)
 .debug_frame   0x00003488       0x3c c:/program files/microchip/xc32/v4.30/bin/bin/../../lib/gcc/pic32c/8.3.1/../../../../pic32c/lib/thumb/v7e-m+fp/hard\libc-musl.a(__libc_start_main.o)
 .debug_frame   0x000034c4      0x14c c:/program files/microchip/xc32/v4.30/bin/bin/../../lib/gcc/pic32c/8.3.1/../../../../pic32c/lib/thumb/v7e-m+fp/hard\libc-musl.a(malloc.o)
 .debug_frame   0x00003610       0x28 c:/program files/microchip/xc32/v4.30/bin/bin/../../lib/gcc/pic32c/8.3.1/../../../../pic32c/lib/thumb/v7e-m+fp/hard\libc-musl.a(expand_heap.o)
 .debug_frame   0x00003638       0x30 c:/program files/microchip/xc32/v4.30/bin/bin/../../lib/gcc/pic32c/8.3.1/../../../../pic32c/lib/thumb/v7e-m+fp/hard\libc-musl.a(stdin.o)
 .debug_frame   0x00003668       0x48 c:/program files/microchip/xc32/v4.30/bin/bin/../../lib/gcc/pic32c/8.3.1/../../../../pic32c/lib/thumb/v7e-m+fp/hard\libc-musl.a(stdout.o)
 .debug_frame   0x000036b0       0x20 c:/program files/microchip/xc32/v4.30/bin/bin/../../lib/gcc/pic32c/8.3.1/../../../../pic32c/lib/thumb/v7e-m+fp/hard\libc-musl.a(setbuf.o)
 .debug_frame   0x000036d0       0x2c c:/program files/microchip/xc32/v4.30/bin/bin/../../lib/gcc/pic32c/8.3.1/../../../../pic32c/lib/thumb/v7e-m+fp/hard\libc-musl.a(memcmp.o)
 .debug_frame   0x000036fc       0x28 c:/program files/microchip/xc32/v4.30/bin/bin/../../lib/gcc/pic32c/8.3.1/../../../../pic32c/lib/thumb/v7e-m+fp/hard\libc-musl.a(memcpy.o)
 .debug_frame   0x00003724       0x20 c:/program files/microchip/xc32/v4.30/bin/bin/../../lib/gcc/pic32c/8.3.1/../../../../pic32c/lib/thumb/v7e-m+fp/hard\libc-musl.a(memset.o)
 .debug_frame   0x00003744       0x20 c:/program files/microchip/xc32/v4.30/bin/bin/../../lib/gcc/pic32c/8.3.1/../../../../pic32c/lib/thumb/v7e-m+fp/hard\libc-musl.a(strlen.o)
 .debug_frame   0x00003764       0x28 c:/program files/microchip/xc32/v4.30/bin/bin/../../lib/gcc/pic32c/8.3.1/../../../../pic32c/lib/thumb/v7e-m+fp/hard\libc-musl.a(strchr.o)
 .debug_frame   0x0000378c       0x30 c:/program files/microchip/xc32/v4.30/bin/bin/../../lib/gcc/pic32c/8.3.1/../../../../pic32c/lib/thumb/v7e-m+fp/hard\libc-musl.a(strchrnul.o)
 .debug_frame   0x000037bc       0x30 c:/program files/microchip/xc32/v4.30/bin/bin/../../lib/gcc/pic32c/8.3.1/../../../../pic32c/lib/thumb/v7e-m+fp/hard\libc-musl.a(__stdio_read.o)
 .debug_frame   0x000037ec       0x20 c:/program files/microchip/xc32/v4.30/bin/bin/../../lib/gcc/pic32c/8.3.1/../../../../pic32c/lib/thumb/v7e-m+fp/hard\libc-musl.a(__towrite_rw.o)
 .debug_frame   0x0000380c       0x3c c:/program files/microchip/xc32/v4.30/bin/bin/../../lib/gcc/pic32c/8.3.1/../../../../pic32c/lib/thumb/v7e-m+fp/hard\libc-musl.a(setvbuf.o)
 .debug_frame   0x00003848       0x30 c:/program files/microchip/xc32/v4.30/bin/bin/../../lib/gcc/pic32c/8.3.1/../../../../pic32c/lib/thumb/v7e-m+fp/hard\libc-musl.a(readv.o)
 .debug_frame   0x00003878       0x38 c:/program files/microchip/xc32/v4.30/bin/bin/../../lib/gcc/pic32c/8.3.1/../../../../pic32c/lib/thumb/v7e-m+fp/hard\libc-musl.a(__init_stdio.o)
 .debug_frame   0x000038b0       0x3c c:/program files/microchip/xc32/v4.30/bin/bin/../../lib/gcc/pic32c/8.3.1/../../../../pic32c/lib/thumb/v7e-m+fp/hard\libc-musl.a(__out.o)
 .debug_frame   0x000038ec       0x40 c:/program files/microchip/xc32/v4.30/bin/bin/../../lib/gcc/pic32c/8.3.1/../../../../pic32c/lib/thumb/v7e-m+fp/hard\libc-musl.a(__stderr.o)
 .debug_frame   0x0000392c       0x60 c:/program files/microchip/xc32/v4.30/bin/bin/../../lib/gcc/pic32c/8.3.1/../../../../pic32c/lib/thumb/v7e-m+fp/hard\libc-musl.a(__stdio_close.o)
 .debug_frame   0x0000398c       0x58 c:/program files/microchip/xc32/v4.30/bin/bin/../../lib/gcc/pic32c/8.3.1/../../../../pic32c/lib/thumb/v7e-m+fp/hard\libc-musl.a(__stdio_write.o)
 .debug_frame   0x000039e4       0x40 c:/program files/microchip/xc32/v4.30/bin/bin/../../lib/gcc/pic32c/8.3.1/../../../../pic32c/lib/thumb/v7e-m+fp/hard\libc-musl.a(__stdout.o)
 .debug_frame   0x00003a24       0x38 c:/program files/microchip/xc32/v4.30/bin/bin/../../lib/gcc/pic32c/8.3.1/../../../../pic32c/lib/thumb/v7e-m+fp/hard\libc-musl.a(__towrite.o)
 .debug_frame   0x00003a5c       0x30 c:/program files/microchip/xc32/v4.30/bin/bin/../../lib/gcc/pic32c/8.3.1/../../../../pic32c/lib/thumb/v7e-m+fp/hard\libc-musl.a(writev.o)
 .debug_frame   0x00003a8c       0x2c c:/program files/microchip/xc32/v4.30/bin/bin/../../lib/gcc/pic32c/8.3.1/thumb/v7e-m+fp/hard\libgcc.a(_aeabi_uldivmod.o)
 .debug_frame   0x00003ab8       0x38 c:/program files/microchip/xc32/v4.30/bin/bin/../../lib/gcc/pic32c/8.3.1/thumb/v7e-m+fp/hard\libgcc.a(_udivmoddi4.o)
 .debug_frame   0x00003af0       0x20 c:/program files/microchip/xc32/v4.30/bin/bin/../../lib/gcc/pic32c/8.3.1/../../../../pic32c/lib/thumb/v7e-m+fp/hard\libpic32c.a(close.o)
 .debug_frame   0x00003b10       0x20 c:/program files/microchip/xc32/v4.30/bin/bin/../../lib/gcc/pic32c/8.3.1/../../../../pic32c/lib/thumb/v7e-m+fp/hard\libpic32c.a(lseek.o)
 .debug_frame   0x00003b30       0x20 c:/program files/microchip/xc32/v4.30/bin/bin/../../lib/gcc/pic32c/8.3.1/../../../../pic32c/lib/thumb/v7e-m+fp/hard\libpic32c.a(sbrk.o)
 .debug_frame   0x00003b50       0x20 c:/program files/microchip/xc32/v4.30/bin/bin/../../lib/gcc/pic32c/8.3.1/../../../../pic32c/lib/thumb/v7e-m+fp/hard\libpic32c.a(pic32_data_init_clear.o)
 .debug_frame   0x00003b70       0x28 c:/program files/microchip/xc32/v4.30/bin/bin/../../lib/gcc/pic32c/8.3.1/../../../../pic32c/lib/thumb/v7e-m+fp/hard\libpic32c.a(pic32_data_init_copy.o)

.debug_loc      0x00000000    0x22e14
 .debug_loc     0x00000000      0x302 build/default/production/_ext/1865468468/plib_nvic.o
 .debug_loc     0x00000302      0x83e build/default/production/_ext/1593096446/plib_nvmctrl.o
 .debug_loc     0x00000b40      0x1e8 build/default/production/_ext/1865521619/plib_port.o
 .debug_loc     0x00000d28      0x1c0 build/default/production/_ext/163028504/xc32_monitor.o
 .debug_loc     0x00000ee8       0x45 build/default/production/_ext/1171490990/initialization.o
 .debug_loc     0x00000f2d       0x4a build/default/production/_ext/1171490990/startup_xc32.o
 .debug_loc     0x00000f77       0x82 build/default/production/_ext/1171490990/freertos_hooks.o
 .debug_loc     0x00000ff9      0x13a build/default/production/_ext/246609638/port.o
 .debug_loc     0x00001133       0x8f build/default/production/_ext/1665200909/heap_1.o
 .debug_loc     0x000011c2     0x191e build/default/production/_ext/404212886/queue.o
 .debug_loc     0x00002ae0     0x2565 build/default/production/_ext/404212886/FreeRTOS_tasks.o
 .debug_loc     0x00005045       0xb2 build/default/production/_ext/404212886/list.o
 .debug_loc     0x000050f7       0x20 build/default/production/_ext/1360937237/main.o
 .debug_loc     0x00005117      0x861 build/default/production/_ext/504274921/plib_sercom3_usart.o
 .debug_loc     0x00005978       0x45 build/default/production/_ext/1100529066/drv_sdspi_file_system.o
 .debug_loc     0x000059bd      0x10a build/default/production/_ext/714983638/plib_sercom4_i2c_slave.o
 .debug_loc     0x00005ac7     0x1d06 build/default/production/_ext/1269487135/sys_fs_fat_interface.o
 .debug_loc     0x000077cd     0x9f57 build/default/production/_ext/411819097/ff.o
 .debug_loc     0x00011724       0xde build/default/production/_ext/60180175/plib_rtc_timer.o
 .debug_loc     0x00011802     0x4c17 build/default/production/_ext/1269487135/sys_fs.o
 .debug_loc     0x00016419      0x58b build/default/production/_ext/565198302/diskio.o
 .debug_loc     0x000169a4     0x1f6f build/default/production/_ext/101884895/sys_time.o
 .debug_loc     0x00018913      0x107 build/default/production/_ext/1171490990/tasks.o
 .debug_loc     0x00018a1a     0x1696 build/default/production/_ext/1269487135/sys_fs_media_manager.o
 .debug_loc     0x0001a0b0      0x727 build/default/production/_ext/1529399856/osal_freertos.o
 .debug_loc     0x0001a7d7     0x2286 build/default/production/_ext/1100529066/drv_sdspi.o
 .debug_loc     0x0001ca5d      0x182 build/default/production/_ext/1881668453/sys_int.o
 .debug_loc     0x0001cbdf      0x852 build/default/production/_ext/1100529066/drv_sdspi_driver_interface.o
 .debug_loc     0x0001d431       0x25 build/default/production/_ext/60184501/plib_wdt.o
 .debug_loc     0x0001d456      0x6ae build/default/production/_ext/17022449/plib_sercom2_spi_master.o
 .debug_loc     0x0001db04      0xde9 build/default/production/_ext/2070931557/drv_spi.o
 .debug_loc     0x0001e8ed      0x10d build/default/production/_ext/1360937237/app.o
 .debug_loc     0x0001e9fa      0x575 build/default/production/_ext/411819097/ffunicode.o
 .debug_loc     0x0001ef6f     0x1228 build/default/production/pdu_packet.o
 .debug_loc     0x00020197       0x14 c:/program files/microchip/xc32/v4.30/bin/bin/../../lib/gcc/pic32c/8.3.1/../../../../pic32c/lib/thumb/v7e-m+fp/hard\libpic32c.a(data_init.o)
 .debug_loc     0x000201ab       0x51 c:/program files/microchip/xc32/v4.30/bin/bin/../../lib/gcc/pic32c/8.3.1/../../../../pic32c/lib/thumb/v7e-m+fp/hard\libc-musl.a(__libc_start_main.o)
 .debug_loc     0x000201fc      0xcef c:/program files/microchip/xc32/v4.30/bin/bin/../../lib/gcc/pic32c/8.3.1/../../../../pic32c/lib/thumb/v7e-m+fp/hard\libc-musl.a(malloc.o)
 .debug_loc     0x00020eeb       0x7c c:/program files/microchip/xc32/v4.30/bin/bin/../../lib/gcc/pic32c/8.3.1/../../../../pic32c/lib/thumb/v7e-m+fp/hard\libc-musl.a(expand_heap.o)
 .debug_loc     0x00020f67       0x25 c:/program files/microchip/xc32/v4.30/bin/bin/../../lib/gcc/pic32c/8.3.1/../../../../pic32c/lib/thumb/v7e-m+fp/hard\libc-musl.a(stdin.o)
 .debug_loc     0x00020f8c       0x20 c:/program files/microchip/xc32/v4.30/bin/bin/../../lib/gcc/pic32c/8.3.1/../../../../pic32c/lib/thumb/v7e-m+fp/hard\libc-musl.a(stdout.o)
 .debug_loc     0x00020fac       0x4a c:/program files/microchip/xc32/v4.30/bin/bin/../../lib/gcc/pic32c/8.3.1/../../../../pic32c/lib/thumb/v7e-m+fp/hard\libc-musl.a(setbuf.o)
 .debug_loc     0x00020ff6      0x10c c:/program files/microchip/xc32/v4.30/bin/bin/../../lib/gcc/pic32c/8.3.1/../../../../pic32c/lib/thumb/v7e-m+fp/hard\libc-musl.a(memcmp.o)
 .debug_loc     0x00021102       0xe5 c:/program files/microchip/xc32/v4.30/bin/bin/../../lib/gcc/pic32c/8.3.1/../../../../pic32c/lib/thumb/v7e-m+fp/hard\libc-musl.a(memcpy.o)
 .debug_loc     0x000211e7       0x56 c:/program files/microchip/xc32/v4.30/bin/bin/../../lib/gcc/pic32c/8.3.1/../../../../pic32c/lib/thumb/v7e-m+fp/hard\libc-musl.a(memset.o)
 .debug_loc     0x0002123d       0x47 c:/program files/microchip/xc32/v4.30/bin/bin/../../lib/gcc/pic32c/8.3.1/../../../../pic32c/lib/thumb/v7e-m+fp/hard\libc-musl.a(strlen.o)
 .debug_loc     0x00021284       0x8c c:/program files/microchip/xc32/v4.30/bin/bin/../../lib/gcc/pic32c/8.3.1/../../../../pic32c/lib/thumb/v7e-m+fp/hard\libc-musl.a(strchr.o)
 .debug_loc     0x00021310      0x11a c:/program files/microchip/xc32/v4.30/bin/bin/../../lib/gcc/pic32c/8.3.1/../../../../pic32c/lib/thumb/v7e-m+fp/hard\libc-musl.a(strchrnul.o)
 .debug_loc     0x0002142a      0x103 c:/program files/microchip/xc32/v4.30/bin/bin/../../lib/gcc/pic32c/8.3.1/../../../../pic32c/lib/thumb/v7e-m+fp/hard\libc-musl.a(__stdio_read.o)
 .debug_loc     0x0002152d       0x25 c:/program files/microchip/xc32/v4.30/bin/bin/../../lib/gcc/pic32c/8.3.1/../../../../pic32c/lib/thumb/v7e-m+fp/hard\libc-musl.a(__towrite_rw.o)
 .debug_loc     0x00021552       0xd8 c:/program files/microchip/xc32/v4.30/bin/bin/../../lib/gcc/pic32c/8.3.1/../../../../pic32c/lib/thumb/v7e-m+fp/hard\libc-musl.a(setvbuf.o)
 .debug_loc     0x0002162a       0xeb c:/program files/microchip/xc32/v4.30/bin/bin/../../lib/gcc/pic32c/8.3.1/../../../../pic32c/lib/thumb/v7e-m+fp/hard\libc-musl.a(readv.o)
 .debug_loc     0x00021715       0x20 c:/program files/microchip/xc32/v4.30/bin/bin/../../lib/gcc/pic32c/8.3.1/../../../../pic32c/lib/thumb/v7e-m+fp/hard\libc-musl.a(__init_stdio.o)
 .debug_loc     0x00021735      0x1a8 c:/program files/microchip/xc32/v4.30/bin/bin/../../lib/gcc/pic32c/8.3.1/../../../../pic32c/lib/thumb/v7e-m+fp/hard\libc-musl.a(__out.o)
 .debug_loc     0x000218dd       0x25 c:/program files/microchip/xc32/v4.30/bin/bin/../../lib/gcc/pic32c/8.3.1/../../../../pic32c/lib/thumb/v7e-m+fp/hard\libc-musl.a(__stderr.o)
 .debug_loc     0x00021902      0x208 c:/program files/microchip/xc32/v4.30/bin/bin/../../lib/gcc/pic32c/8.3.1/../../../../pic32c/lib/thumb/v7e-m+fp/hard\libc-musl.a(__stdio_close.o)
 .debug_loc     0x00021b0a      0x2f1 c:/program files/microchip/xc32/v4.30/bin/bin/../../lib/gcc/pic32c/8.3.1/../../../../pic32c/lib/thumb/v7e-m+fp/hard\libc-musl.a(__stdio_write.o)
 .debug_loc     0x00021dfb       0x25 c:/program files/microchip/xc32/v4.30/bin/bin/../../lib/gcc/pic32c/8.3.1/../../../../pic32c/lib/thumb/v7e-m+fp/hard\libc-musl.a(__stdout.o)
 .debug_loc     0x00021e20       0x7c c:/program files/microchip/xc32/v4.30/bin/bin/../../lib/gcc/pic32c/8.3.1/../../../../pic32c/lib/thumb/v7e-m+fp/hard\libc-musl.a(__towrite.o)
 .debug_loc     0x00021e9c       0xeb c:/program files/microchip/xc32/v4.30/bin/bin/../../lib/gcc/pic32c/8.3.1/../../../../pic32c/lib/thumb/v7e-m+fp/hard\libc-musl.a(writev.o)
 .debug_loc     0x00021f87      0xe79 c:/program files/microchip/xc32/v4.30/bin/bin/../../lib/gcc/pic32c/8.3.1/thumb/v7e-m+fp/hard\libgcc.a(_udivmoddi4.o)
 .debug_loc     0x00022e00       0x14 c:/program files/microchip/xc32/v4.30/bin/bin/../../lib/gcc/pic32c/8.3.1/../../../../pic32c/lib/thumb/v7e-m+fp/hard\libpic32c.a(pic32_data_init_copy.o)

.note.GNU-stack
                0x00000000        0x0
 .note.GNU-stack
                0x00000000        0x0 c:/program files/microchip/xc32/v4.30/bin/bin/../../lib/gcc/pic32c/8.3.1/../../../../pic32c/lib/thumb/v7e-m+fp/hard\libc-musl.a(__libc_start_main.o)
 .note.GNU-stack
                0x00000000        0x0 c:/program files/microchip/xc32/v4.30/bin/bin/../../lib/gcc/pic32c/8.3.1/../../../../pic32c/lib/thumb/v7e-m+fp/hard\libc-musl.a(libc.o)
 .note.GNU-stack
                0x00000000        0x0 c:/program files/microchip/xc32/v4.30/bin/bin/../../lib/gcc/pic32c/8.3.1/../../../../pic32c/lib/thumb/v7e-m+fp/hard\libc-musl.a(malloc.o)
 .note.GNU-stack
                0x00000000        0x0 c:/program files/microchip/xc32/v4.30/bin/bin/../../lib/gcc/pic32c/8.3.1/../../../../pic32c/lib/thumb/v7e-m+fp/hard\libc-musl.a(expand_heap.o)
 .note.GNU-stack
                0x00000000        0x0 c:/program files/microchip/xc32/v4.30/bin/bin/../../lib/gcc/pic32c/8.3.1/../../../../pic32c/lib/thumb/v7e-m+fp/hard\libc-musl.a(stdin.o)
 .note.GNU-stack
                0x00000000        0x0 c:/program files/microchip/xc32/v4.30/bin/bin/../../lib/gcc/pic32c/8.3.1/../../../../pic32c/lib/thumb/v7e-m+fp/hard\libc-musl.a(stdout.o)
 .note.GNU-stack
                0x00000000        0x0 c:/program files/microchip/xc32/v4.30/bin/bin/../../lib/gcc/pic32c/8.3.1/../../../../pic32c/lib/thumb/v7e-m+fp/hard\libc-musl.a(setbuf.o)
 .note.GNU-stack
                0x00000000        0x0 c:/program files/microchip/xc32/v4.30/bin/bin/../../lib/gcc/pic32c/8.3.1/../../../../pic32c/lib/thumb/v7e-m+fp/hard\libc-musl.a(memcmp.o)
 .note.GNU-stack
                0x00000000        0x0 c:/program files/microchip/xc32/v4.30/bin/bin/../../lib/gcc/pic32c/8.3.1/../../../../pic32c/lib/thumb/v7e-m+fp/hard\libc-musl.a(memcpy.o)
 .note.GNU-stack
                0x00000000        0x0 c:/program files/microchip/xc32/v4.30/bin/bin/../../lib/gcc/pic32c/8.3.1/../../../../pic32c/lib/thumb/v7e-m+fp/hard\libc-musl.a(memset.o)
 .note.GNU-stack
                0x00000000        0x0 c:/program files/microchip/xc32/v4.30/bin/bin/../../lib/gcc/pic32c/8.3.1/../../../../pic32c/lib/thumb/v7e-m+fp/hard\libc-musl.a(strlen.o)
 .note.GNU-stack
                0x00000000        0x0 c:/program files/microchip/xc32/v4.30/bin/bin/../../lib/gcc/pic32c/8.3.1/../../../../pic32c/lib/thumb/v7e-m+fp/hard\libc-musl.a(strchr.o)
 .note.GNU-stack
                0x00000000        0x0 c:/program files/microchip/xc32/v4.30/bin/bin/../../lib/gcc/pic32c/8.3.1/../../../../pic32c/lib/thumb/v7e-m+fp/hard\libc-musl.a(strchrnul.o)
 .note.GNU-stack
                0x00000000        0x0 c:/program files/microchip/xc32/v4.30/bin/bin/../../lib/gcc/pic32c/8.3.1/../../../../pic32c/lib/thumb/v7e-m+fp/hard\libc-musl.a(__environ.o)
 .note.GNU-stack
                0x00000000        0x0 c:/program files/microchip/xc32/v4.30/bin/bin/../../lib/gcc/pic32c/8.3.1/../../../../pic32c/lib/thumb/v7e-m+fp/hard\libc-musl.a(__errno_location.o)
 .note.GNU-stack
                0x00000000        0x0 c:/program files/microchip/xc32/v4.30/bin/bin/../../lib/gcc/pic32c/8.3.1/../../../../pic32c/lib/thumb/v7e-m+fp/hard\libc-musl.a(__stdio_read.o)
 .note.GNU-stack
                0x00000000        0x0 c:/program files/microchip/xc32/v4.30/bin/bin/../../lib/gcc/pic32c/8.3.1/../../../../pic32c/lib/thumb/v7e-m+fp/hard\libc-musl.a(__towrite_rw.o)
 .note.GNU-stack
                0x00000000        0x0 c:/program files/microchip/xc32/v4.30/bin/bin/../../lib/gcc/pic32c/8.3.1/../../../../pic32c/lib/thumb/v7e-m+fp/hard\libc-musl.a(setvbuf.o)
 .note.GNU-stack
                0x00000000        0x0 c:/program files/microchip/xc32/v4.30/bin/bin/../../lib/gcc/pic32c/8.3.1/../../../../pic32c/lib/thumb/v7e-m+fp/hard\libc-musl.a(readv.o)
 .note.GNU-stack
                0x00000000        0x0 c:/program files/microchip/xc32/v4.30/bin/bin/../../lib/gcc/pic32c/8.3.1/../../../../pic32c/lib/thumb/v7e-m+fp/hard\libc-musl.a(__init_stdio.o)
 .note.GNU-stack
                0x00000000        0x0 c:/program files/microchip/xc32/v4.30/bin/bin/../../lib/gcc/pic32c/8.3.1/../../../../pic32c/lib/thumb/v7e-m+fp/hard\libc-musl.a(__out.o)
 .note.GNU-stack
                0x00000000        0x0 c:/program files/microchip/xc32/v4.30/bin/bin/../../lib/gcc/pic32c/8.3.1/../../../../pic32c/lib/thumb/v7e-m+fp/hard\libc-musl.a(__stderr.o)
 .note.GNU-stack
                0x00000000        0x0 c:/program files/microchip/xc32/v4.30/bin/bin/../../lib/gcc/pic32c/8.3.1/../../../../pic32c/lib/thumb/v7e-m+fp/hard\libc-musl.a(__stdio_close.o)
 .note.GNU-stack
                0x00000000        0x0 c:/program files/microchip/xc32/v4.30/bin/bin/../../lib/gcc/pic32c/8.3.1/../../../../pic32c/lib/thumb/v7e-m+fp/hard\libc-musl.a(__stdio_write.o)
 .note.GNU-stack
                0x00000000        0x0 c:/program files/microchip/xc32/v4.30/bin/bin/../../lib/gcc/pic32c/8.3.1/../../../../pic32c/lib/thumb/v7e-m+fp/hard\libc-musl.a(__stdout.o)
 .note.GNU-stack
                0x00000000        0x0 c:/program files/microchip/xc32/v4.30/bin/bin/../../lib/gcc/pic32c/8.3.1/../../../../pic32c/lib/thumb/v7e-m+fp/hard\libc-musl.a(__towrite.o)
 .note.GNU-stack
                0x00000000        0x0 c:/program files/microchip/xc32/v4.30/bin/bin/../../lib/gcc/pic32c/8.3.1/../../../../pic32c/lib/thumb/v7e-m+fp/hard\libc-musl.a(writev.o)

__xc_reference_data
                0x00000000       0xb4
 __xc_reference_data
                0x00000000        0x4 c:/program files/microchip/xc32/v4.30/bin/bin/../../lib/gcc/pic32c/8.3.1/../../../../pic32c/lib/thumb/v7e-m+fp/hard\libc-musl.a(stdin.o)
                0x00000000                __stdin_needs_rw
 __xc_reference_data
                0x00000004        0x4 c:/program files/microchip/xc32/v4.30/bin/bin/../../lib/gcc/pic32c/8.3.1/../../../../pic32c/lib/thumb/v7e-m+fp/hard\libc-musl.a(stdout.o)
                0x00000004                __stdout_needs_init
 __xc_reference_data
                0x00000008        0xc c:/program files/microchip/xc32/v4.30/bin/bin/../../lib/gcc/pic32c/8.3.1/../../../../pic32c/lib/thumb/v7e-m+fp/hard\libc-musl.a(__io_init_needed.o)
                0x00000008                __io_init_needed
                0x00000010                __io_init_needs_file
 __xc_reference_data
                0x00000014       0x24 c:/program files/microchip/xc32/v4.30/bin/bin/../../lib/gcc/pic32c/8.3.1/../../../../pic32c/lib/thumb/v7e-m+fp/hard\libc-musl.a(__io_rw_needed.o)
                0x00000014                __io_rw_needed
 __xc_reference_data
                0x00000038        0x4 c:/program files/microchip/xc32/v4.30/bin/bin/../../lib/gcc/pic32c/8.3.1/../../../../pic32c/lib/thumb/v7e-m+fp/hard\libc-musl.a(setvbuf.o)
                0x00000038                __setvbuf_needs_buf
 __xc_reference_data
                0x0000003c       0x38 c:/program files/microchip/xc32/v4.30/bin/bin/../../lib/gcc/pic32c/8.3.1/../../../../pic32c/lib/thumb/v7e-m+fp/hard\libc-musl.a(__io_buf_needed.o)
                0x0000003c                __io_buf_needed
 __xc_reference_data
                0x00000074        0x8 c:/program files/microchip/xc32/v4.30/bin/bin/../../lib/gcc/pic32c/8.3.1/../../../../pic32c/lib/thumb/v7e-m+fp/hard\libc-musl.a(__io_file_needed.o)
                0x00000074                __io_file_needed
 __xc_reference_data
                0x0000007c       0x30 c:/program files/microchip/xc32/v4.30/bin/bin/../../lib/gcc/pic32c/8.3.1/../../../../pic32c/lib/thumb/v7e-m+fp/hard\libc-musl.a(__io_std_needed.o)
                0x0000007c                __io_std_needed
 __xc_reference_data
                0x000000ac        0x4 c:/program files/microchip/xc32/v4.30/bin/bin/../../lib/gcc/pic32c/8.3.1/../../../../pic32c/lib/thumb/v7e-m+fp/hard\libc-musl.a(__stderr.o)
                0x000000ac                __stderr_needs_file
 __xc_reference_data
                0x000000b0        0x4 c:/program files/microchip/xc32/v4.30/bin/bin/../../lib/gcc/pic32c/8.3.1/../../../../pic32c/lib/thumb/v7e-m+fp/hard\libc-musl.a(__stdout.o)
                0x000000b0                __stdout_needs_file

.stack          0x2000bad0      0x100
 .stack         0x2000bad0      0x100 stack

.bss.ucHeap%1   0x20000000     0xa000
 .bss.ucHeap    0x20000000     0xa000 build/default/production/_ext/1665200909/heap_1.o

.bss%2          0x2000a000      0x408
 .bss           0x2000a000      0x408 c:/program files/microchip/xc32/v4.30/bin/bin/../../lib/gcc/pic32c/8.3.1/../../../../pic32c/lib/thumb/v7e-m+fp/hard\libc-musl.a(stdin.o)

.bss.FATFSVolume%3
                0x2000a410      0x250
 .bss.FATFSVolume
                0x2000a410      0x250 build/default/production/_ext/1269487135/sys_fs_fat_interface.o

.bss.FATFSFileObject%4
                0x2000a660      0x240
 .bss.FATFSFileObject
                0x2000a660      0x240 build/default/production/_ext/1269487135/sys_fs_fat_interface.o

.bss%5          0x2000a8a0      0x20c
 .bss           0x2000a8a0      0x20c c:/program files/microchip/xc32/v4.30/bin/bin/../../lib/gcc/pic32c/8.3.1/../../../../pic32c/lib/thumb/v7e-m+fp/hard\libc-musl.a(malloc.o)

.bss.LfnBuf%6   0x2000aaac      0x200
 .bss.LfnBuf    0x2000aaac      0x200 build/default/production/_ext/411819097/ff.o

.bss.gSYSFSMediaBlockBuffer%7
                0x2000acb0      0x200
 .bss.gSYSFSMediaBlockBuffer
                0x2000acb0      0x200 build/default/production/_ext/1269487135/sys_fs_media_manager.o

.bss.gSYSFSMediaBuffer%8
                0x2000aeb0      0x200
 .bss.gSYSFSMediaBuffer
                0x2000aeb0      0x200 build/default/production/_ext/1269487135/sys_fs_media_manager.o

.bss.gSYSFSFileObj%9
                0x2000b0b0      0x110
 .bss.gSYSFSFileObj
                0x2000b0b0      0x110 build/default/production/_ext/1269487135/sys_fs.o

.bss.receiveBuffer%10
                0x2000b1c0      0x100
 .bss.receiveBuffer
                0x2000b1c0      0x100 build/default/production/_ext/1360937237/app.o
                0x2000b1c0                receiveBuffer

.bss.gDrvSDSPIObj%11
                0x2000b2c0       0xe0
 .bss.gDrvSDSPIObj
                0x2000b2c0       0xe0 build/default/production/_ext/1100529066/drv_sdspi.o

.bss.timers%12  0x2000b3a0       0xa0
 .bss.timers    0x2000b3a0       0xa0 build/default/production/_ext/101884895/sys_time.o

.bss.pxReadyTasksLists%13
                0x2000b440       0x64
 .bss.pxReadyTasksLists
                0x2000b440       0x64 build/default/production/_ext/404212886/FreeRTOS_tasks.o

.bss%14         0x2000b4a4       0x50
 .bss           0x2000b4a4       0x50 c:/program files/microchip/xc32/v4.30/bin/bin/../../lib/gcc/pic32c/8.3.1/../../../../pic32c/lib/thumb/v7e-m+fp/hard\libc-musl.a(libc.o)
                0x2000b4a4                __progname_full
                0x2000b4a4                program_invocation_name
                0x2000b4a8                program_invocation_short_name
                0x2000b4a8                __progname
                0x2000b4ac                __sysinfo
                0x2000b4b0                __hwcap
                0x2000b4b4                __libc

.bss.gDrvSPIObj%15
                0x2000b4f4       0x48
 .bss.gDrvSPIObj
                0x2000b4f4       0x48 build/default/production/_ext/2070931557/drv_spi.o

.bss.FATFSDirObject%16
                0x2000b540       0x38
 .bss.FATFSDirObject
                0x2000b540       0x38 build/default/production/_ext/1269487135/sys_fs_fat_interface.o

.bss.gSystemCounterObj%17
                0x2000b578       0x30
 .bss.gSystemCounterObj
                0x2000b578       0x30 build/default/production/_ext/101884895/sys_time.o

.bss.sercom2SPIObj%18
                0x2000b5a8       0x2c
 .bss.sercom2SPIObj
                0x2000b5a8       0x2c build/default/production/_ext/17022449/plib_sercom2_spi_master.o

.bss.gSYSFSMediaObject%19
                0x2000b5d4       0x28
 .bss.gSYSFSMediaObject
                0x2000b5d4       0x28 build/default/production/_ext/1269487135/sys_fs_media_manager.o

.bss.drvSPI0ClientObjPool%20
                0x2000b5fc       0x24
 .bss.drvSPI0ClientObjPool
                0x2000b5fc       0x24 build/default/production/_ext/1171490990/initialization.o

.bss%21         0x2000b620       0x1c
 .bss           0x2000b620       0x1c c:/program files/microchip/xc32/v4.30/bin/bin/../../lib/gcc/pic32c/8.3.1/thumb/v7e-m+fp/hard/crtbegin.o

.bss.gSYSFSVolumeObject%22
                0x2000b63c       0x1c
 .bss.gSYSFSVolumeObject
                0x2000b63c       0x1c build/default/production/_ext/1269487135/sys_fs_media_manager.o

.bss.xDelayedTaskList1%23
                0x2000b658       0x14
 .bss.xDelayedTaskList1
                0x2000b658       0x14 build/default/production/_ext/404212886/FreeRTOS_tasks.o

.bss.xDelayedTaskList2%24
                0x2000b66c       0x14
 .bss.xDelayedTaskList2
                0x2000b66c       0x14 build/default/production/_ext/404212886/FreeRTOS_tasks.o

.bss.xPendingReadyList%25
                0x2000b680       0x14
 .bss.xPendingReadyList
                0x2000b680       0x14 build/default/production/_ext/404212886/FreeRTOS_tasks.o

.bss.xSuspendedTaskList%26
                0x2000b694       0x14
 .bss.xSuspendedTaskList
                0x2000b694       0x14 build/default/production/_ext/404212886/FreeRTOS_tasks.o

.bss.xTasksWaitingTermination%27
                0x2000b6a8       0x14
 .bss.xTasksWaitingTermination
                0x2000b6a8       0x14 build/default/production/_ext/404212886/FreeRTOS_tasks.o

.bss.gSYSFSMountPoint%28
                0x2000b6bc       0x14
 .bss.gSYSFSMountPoint
                0x2000b6bc       0x14 build/default/production/_ext/1269487135/sys_fs.o

.bss.drvSDSPI0ClientObjPool%29
                0x2000b6d0       0x10
 .bss.drvSDSPI0ClientObjPool
                0x2000b6d0       0x10 build/default/production/_ext/1171490990/initialization.o

.bss.Files%30   0x2000b6e0       0x10
 .bss.Files     0x2000b6e0       0x10 build/default/production/_ext/411819097/ff.o

.bss.gSYSFSDirObj%31
                0x2000b6f0       0x10
 .bss.gSYSFSDirObj
                0x2000b6f0       0x10 build/default/production/_ext/1269487135/sys_fs.o

.bss.gSysFsDiskData%32
                0x2000b700        0x8
 .bss.gSysFsDiskData
                0x2000b700        0x8 build/default/production/_ext/565198302/diskio.o

.bss.sysObj%33  0x2000b708        0xc
 .bss.sysObj    0x2000b708        0xc build/default/production/_ext/1171490990/initialization.o
                0x2000b708                sysObj

.bss.sysfsMountTable%34
                0x2000b714        0xc
 .bss.sysfsMountTable
                0x2000b714        0xc build/default/production/_ext/1171490990/initialization.o
                0x2000b714                sysfsMountTable

.bss.sercom4I2CSObj%35
                0x2000b720        0xc
 .bss.sercom4I2CSObj
                0x2000b720        0xc build/default/production/_ext/714983638/plib_sercom4_i2c_slave.o

.bss.rtcObj%36  0x2000b72c        0xc
 .bss.rtcObj    0x2000b72c        0xc build/default/production/_ext/60180175/plib_rtc_timer.o

.bss.gSYSFSObj%37
                0x2000a408        0x8
 .bss.gSYSFSObj
                0x2000a408        0x8 build/default/production/_ext/1269487135/sys_fs.o

.bss%38         0x2000b738        0x8
 .bss           0x2000b738        0x8 c:/program files/microchip/xc32/v4.30/bin/bin/../../lib/gcc/pic32c/8.3.1/../../../../pic32c/lib/thumb/v7e-m+fp/hard\libc-musl.a(stdout.o)
                0x2000b73c                __stdout_used

.bss.pucAlignedHeap.6181%39
                0x2000acac        0x4
 .bss.pucAlignedHeap.6181
                0x2000acac        0x4 build/default/production/_ext/1665200909/heap_1.o

.bss.xNextFreeByte%40
                0x2000b53c        0x4
 .bss.xNextFreeByte
                0x2000b53c        0x4 build/default/production/_ext/1665200909/heap_1.o

.bss.pxCurrentTCB%41
                0x2000b740        0x4
 .bss.pxCurrentTCB
                0x2000b740        0x4 build/default/production/_ext/404212886/FreeRTOS_tasks.o
                0x2000b740                pxCurrentTCB

.bss.pxDelayedTaskList%42
                0x2000b744        0x4
 .bss.pxDelayedTaskList
                0x2000b744        0x4 build/default/production/_ext/404212886/FreeRTOS_tasks.o

.bss.pxOverflowDelayedTaskList%43
                0x2000b748        0x4
 .bss.pxOverflowDelayedTaskList
                0x2000b748        0x4 build/default/production/_ext/404212886/FreeRTOS_tasks.o

.bss.uxCurrentNumberOfTasks%44
                0x2000b74c        0x4
 .bss.uxCurrentNumberOfTasks
                0x2000b74c        0x4 build/default/production/_ext/404212886/FreeRTOS_tasks.o

.bss.uxDeletedTasksWaitingCleanUp%45
                0x2000b750        0x4
 .bss.uxDeletedTasksWaitingCleanUp
                0x2000b750        0x4 build/default/production/_ext/404212886/FreeRTOS_tasks.o

.bss.uxSchedulerSuspended%46
                0x2000b754        0x4
 .bss.uxSchedulerSuspended
                0x2000b754        0x4 build/default/production/_ext/404212886/FreeRTOS_tasks.o

.bss.uxTaskNumber%47
                0x2000b758        0x4
 .bss.uxTaskNumber
                0x2000b758        0x4 build/default/production/_ext/404212886/FreeRTOS_tasks.o

.bss.uxTopReadyPriority%48
                0x2000b75c        0x4
 .bss.uxTopReadyPriority
                0x2000b75c        0x4 build/default/production/_ext/404212886/FreeRTOS_tasks.o

.bss.xIdleTaskHandle%49
                0x2000b760        0x4
 .bss.xIdleTaskHandle
                0x2000b760        0x4 build/default/production/_ext/404212886/FreeRTOS_tasks.o

.bss.xNextTaskUnblockTime%50
                0x2000b764        0x4
 .bss.xNextTaskUnblockTime
                0x2000b764        0x4 build/default/production/_ext/404212886/FreeRTOS_tasks.o

.bss.xNumOfOverflows%51
                0x2000b768        0x4
 .bss.xNumOfOverflows
                0x2000b768        0x4 build/default/production/_ext/404212886/FreeRTOS_tasks.o

.bss.xPendedTicks%52
                0x2000b76c        0x4
 .bss.xPendedTicks
                0x2000b76c        0x4 build/default/production/_ext/404212886/FreeRTOS_tasks.o

.bss.xSchedulerRunning%53
                0x2000b770        0x4
 .bss.xSchedulerRunning
                0x2000b770        0x4 build/default/production/_ext/404212886/FreeRTOS_tasks.o

.bss.xTickCount%54
                0x2000b774        0x4
 .bss.xTickCount
                0x2000b774        0x4 build/default/production/_ext/404212886/FreeRTOS_tasks.o

.bss.xYieldPending%55
                0x2000b778        0x4
 .bss.xYieldPending
                0x2000b778        0x4 build/default/production/_ext/404212886/FreeRTOS_tasks.o

.bss.FatFs%56   0x2000b77c        0x4
 .bss.FatFs     0x2000b77c        0x4 build/default/production/_ext/411819097/ff.o

.bss.gSysFsMutex%57
                0x2000b780        0x4
 .bss.gSysFsMutex
                0x2000b780        0x4 build/default/production/_ext/1269487135/sys_fs.o

.bss.xAPP_Tasks%58
                0x2000b784        0x4
 .bss.xAPP_Tasks
                0x2000b784        0x4 build/default/production/_ext/1171490990/tasks.o
                0x2000b784                xAPP_Tasks

.bss.data%59    0x2000b788        0x4
 .bss.data      0x2000b788        0x4 build/default/production/_ext/1360937237/app.o
                0x2000b788                data

.bss%60         0x2000b78c        0x4
 .bss           0x2000b78c        0x4 c:/program files/microchip/xc32/v4.30/bin/bin/../../lib/gcc/pic32c/8.3.1/../../../../pic32c/lib/thumb/v7e-m+fp/hard\libpic32c.a(data_init.o)

.bss%61         0x2000b790        0x4
 .bss           0x2000b790        0x4 c:/program files/microchip/xc32/v4.30/bin/bin/../../lib/gcc/pic32c/8.3.1/../../../../pic32c/lib/thumb/v7e-m+fp/hard\libc-musl.a(__environ.o)
                0x2000b790                __environ
                0x2000b790                environ
                0x2000b790                ___environ
                0x2000b790                _environ

.bss%62         0x2000b794        0x4
 .bss           0x2000b794        0x4 c:/program files/microchip/xc32/v4.30/bin/bin/../../lib/gcc/pic32c/8.3.1/../../../../pic32c/lib/thumb/v7e-m+fp/hard\libc-musl.a(__errno_location.o)
                0x2000b794                __errno_val

.bss%63         0x2000b798        0x4
 .bss           0x2000b798        0x4 c:/program files/microchip/xc32/v4.30/bin/bin/../../lib/gcc/pic32c/8.3.1/../../../../pic32c/lib/thumb/v7e-m+fp/hard\libpic32c.a(sbrk.o)

.bss.VolToPart%64
                0x2000b79c        0x2
 .bss.VolToPart
                0x2000b79c        0x2 build/default/production/_ext/1269487135/sys_fs_media_manager.o
                0x2000b79c                VolToPart

.bss.Fsid%65    0x2000b79e        0x2
 .bss.Fsid      0x2000b79e        0x2 build/default/production/_ext/411819097/ff.o

.bss.rxCounter%66
                0x2000b7a0        0x2
 .bss.rxCounter
                0x2000b7a0        0x2 build/default/production/_ext/1360937237/app.o
                0x2000b7a0                rxCounter

.bss.startupflag%67
                0x2000b7a2        0x1
 .bss.startupflag
                0x2000b7a2        0x1 build/default/production/_ext/1269487135/sys_fs_fat_interface.o

.bss.CurrVol%68
                0x2000b7a3        0x1
 .bss.CurrVol   0x2000b7a3        0x1 build/default/production/_ext/411819097/ff.o

.bss.isLastByteTransferInProgress.8099%69
                0x2000b7a4        0x1
 .bss.isLastByteTransferInProgress.8099
                0x2000b7a4        0x1 build/default/production/_ext/17022449/plib_sercom2_spi_master.o

.bss.isExclusiveUseMutexAcquired.9282%70
                0x2000b7a5        0x1
 .bss.isExclusiveUseMutexAcquired.9282
                0x2000b7a5        0x1 build/default/production/_ext/2070931557/drv_spi.o

.data%71        0x2000b7a8       0x6c
 .data          0x2000b7a8       0x6c c:/program files/microchip/xc32/v4.30/bin/bin/../../lib/gcc/pic32c/8.3.1/../../../../pic32c/lib/thumb/v7e-m+fp/hard\libc-musl.a(stdin.o)
                0x2000b7a8                __stdin_used
                0x2000b7ac                _stdin

.data%72        0x2000b814       0x60
 .data          0x2000b814       0x60 c:/program files/microchip/xc32/v4.30/bin/bin/../../lib/gcc/pic32c/8.3.1/../../../../pic32c/lib/thumb/v7e-m+fp/hard\libc-musl.a(__stdout.o)

.data%73        0x2000b874       0x20
 .data          0x2000b874       0x20 c:/program files/microchip/xc32/v4.30/bin/bin/../../lib/gcc/pic32c/8.3.1/../../../../pic32c/lib/thumb/v7e-m+fp/hard\libc-musl.a(stdout.o)
                0x2000b890                _stdout

.data.gSYSFSMediaManagerObj%74
                0x2000b894       0x18
 .data.gSYSFSMediaManagerObj
                0x2000b894       0x18 build/default/production/_ext/1269487135/sys_fs_media_manager.o

.data.uxCriticalNesting%75
                0x2000b8ac        0x4
 .data.uxCriticalNesting
                0x2000b8ac        0x4 build/default/production/_ext/246609638/port.o

.data.uxTopUsedPriority%76
                0x2000b8b0        0x4
 .data.uxTopUsedPriority
                0x2000b8b0        0x4 build/default/production/_ext/404212886/FreeRTOS_tasks.o
                0x2000b8b0                uxTopUsedPriority

.data.gSysTimeTokenCount%77
                0x2000b7a6        0x2
 .data.gSysTimeTokenCount
                0x2000b7a6        0x2 build/default/production/_ext/101884895/sys_time.o

.eh_frame%z1    0x00000000        0x0
 .eh_frame      0x00000000        0x0 c:/program files/microchip/xc32/v4.30/bin/bin/../../lib/gcc/pic32c/8.3.1/thumb/v7e-m+fp/hard/crtbegin.o

.config_00804000.__config_00804000%78
                0x00804000        0x4
 .config_00804000.__config_00804000
                0x00804000        0x4 build/default/production/_ext/1171490990/initialization.o
                0x00804000                __config_00804000

.config_00804004.__config_00804004%79
                0x00804004        0x4
 .config_00804004.__config_00804004
                0x00804004        0x4 build/default/production/_ext/1171490990/initialization.o
                0x00804004                __config_00804004

.config_00804008.__config_00804008%80
                0x00804008        0x4
 .config_00804008.__config_00804008
                0x00804008        0x4 build/default/production/_ext/1171490990/initialization.o
                0x00804008                __config_00804008

.text.f_mkfs%81
                0x00000288      0x7f0
 .text.f_mkfs   0x00000288      0x7f0 build/default/production/_ext/411819097/ff.o
                0x00000288                f_mkfs

.text.decode_pdu_packet%82
                0x00000a78      0x6fc
 .text.decode_pdu_packet
                0x00000a78      0x6fc build/default/production/pdu_packet.o
                0x00000a78                decode_pdu_packet

.text.DRV_SDSPI_Tasks%83
                0x00001174      0x6a0
 .text.DRV_SDSPI_Tasks
                0x00001174      0x6a0 build/default/production/_ext/1100529066/drv_sdspi.o
                0x00001174                DRV_SDSPI_Tasks

.dinit%84       0x00001814      0x3fc
 .dinit         0x00001814      0x3fc data_init

.text.SYS_FS_MEDIA_MANAGER_Tasks%85
                0x00001e64      0x3f8
 .text.SYS_FS_MEDIA_MANAGER_Tasks
                0x00001e64      0x3f8 build/default/production/_ext/1269487135/sys_fs_media_manager.o
                0x00001e64                SYS_FS_MEDIA_MANAGER_Tasks

.text.follow_path%86
                0x0000225c      0x39c
 .text.follow_path
                0x0000225c      0x39c build/default/production/_ext/411819097/ff.o

.text.mount_volume%87
                0x000025f8      0x398
 .text.mount_volume
                0x000025f8      0x398 build/default/production/_ext/411819097/ff.o

.text.f_printf%88
                0x00002990      0x350
 .text.f_printf
                0x00002990      0x350 build/default/production/_ext/411819097/ff.o
                0x00002990                f_printf

.text.lDRV_SDSPI_SetupXfer%89
                0x00002ce0      0x338
 .text.lDRV_SDSPI_SetupXfer
                0x00002ce0      0x338 build/default/production/_ext/1100529066/drv_sdspi.o

.text%90        0x00003018      0x2bc
 .text          0x00003018      0x2bc c:/program files/microchip/xc32/v4.30/bin/bin/../../lib/gcc/pic32c/8.3.1/thumb/v7e-m+fp/hard\libgcc.a(_udivmoddi4.o)
                0x00003018                __udivmoddi4

.text.dir_register%91
                0x000032d4      0x2b0
 .text.dir_register
                0x000032d4      0x2b0 build/default/production/_ext/411819097/ff.o

.text.f_open%92
                0x00003584      0x268
 .text.f_open   0x00003584      0x268 build/default/production/_ext/411819097/ff.o
                0x00003584                f_open

.text.xTaskCreate%93
                0x000037ec      0x1f4
 .text.xTaskCreate
                0x000037ec      0x1f4 build/default/production/_ext/404212886/FreeRTOS_tasks.o
                0x000037ec                xTaskCreate

.rodata.cvt1.8196%94
                0x000039e0      0x1f4
 .rodata.cvt1.8196
                0x000039e0      0x1f4 build/default/production/_ext/411819097/ffunicode.o

.text.f_write%95
                0x00003bd4      0x1c6
 .text.f_write  0x00003bd4      0x1c6 build/default/production/_ext/411819097/ff.o
                0x00003bd4                f_write

.text.dir_find%96
                0x00003d9c      0x1c4
 .text.dir_find
                0x00003d9c      0x1c4 build/default/production/_ext/411819097/ff.o

.text.malloc%97
                0x00003f60      0x1a4
 .text.malloc   0x00003f60      0x1a4 c:/program files/microchip/xc32/v4.30/bin/bin/../../lib/gcc/pic32c/8.3.1/../../../../pic32c/lib/thumb/v7e-m+fp/hard\libc-musl.a(malloc.o)
                0x00003f60                malloc

.text.f_read%98
                0x00004104      0x198
 .text.f_read   0x00004104      0x198 build/default/production/_ext/411819097/ff.o
                0x00004104                f_read

.text.xTaskIncrementTick%99
                0x0000429c      0x194
 .text.xTaskIncrementTick
                0x0000429c      0x194 build/default/production/_ext/404212886/FreeRTOS_tasks.o
                0x0000429c                xTaskIncrementTick

.text.f_lseek%100
                0x00004430      0x192
 .text.f_lseek  0x00004430      0x192 build/default/production/_ext/411819097/ff.o
                0x00004430                f_lseek

.text.create_partition%101
                0x000045c4      0x188
 .text.create_partition
                0x000045c4      0x188 build/default/production/_ext/411819097/ff.o

.text.SYS_FS_MEDIA_MANAGER_SectorWrite%102
                0x0000474c      0x188
 .text.SYS_FS_MEDIA_MANAGER_SectorWrite
                0x0000474c      0x188 build/default/production/_ext/1269487135/sys_fs_media_manager.o
                0x0000474c                SYS_FS_MEDIA_MANAGER_SectorWrite

.text.DRV_SPI_WriteReadTransfer%103
                0x000048d4      0x188
 .text.DRV_SPI_WriteReadTransfer
                0x000048d4      0x188 build/default/production/_ext/2070931557/drv_spi.o
                0x000048d4                DRV_SPI_WriteReadTransfer

.text.f_setlabel%104
                0x00004a5c      0x17c
 .text.f_setlabel
                0x00004a5c      0x17c build/default/production/_ext/411819097/ff.o
                0x00004a5c                f_setlabel

.text.SERCOM2_SPI_WriteRead%105
                0x00004bd8      0x17c
 .text.SERCOM2_SPI_WriteRead
                0x00004bd8      0x17c build/default/production/_ext/17022449/plib_sercom2_spi_master.o
                0x00004bd8                SERCOM2_SPI_WriteRead

.text.xTaskResumeAll%106
                0x00004d54      0x170
 .text.xTaskResumeAll
                0x00004d54      0x170 build/default/production/_ext/404212886/FreeRTOS_tasks.o
                0x00004d54                xTaskResumeAll

.text.get_fileinfo%107
                0x00004ec4      0x168
 .text.get_fileinfo
                0x00004ec4      0x168 build/default/production/_ext/411819097/ff.o

.text.lDRV_SDSPI_CommandSend%108
                0x0000502c      0x164
 .text.lDRV_SDSPI_CommandSend
                0x0000502c      0x164 build/default/production/_ext/1100529066/drv_sdspi.o

.text.f_rename%109
                0x00005190      0x160
 .text.f_rename
                0x00005190      0x160 build/default/production/_ext/411819097/ff.o
                0x00005190                f_rename

.text.SERCOM2_SPI_InterruptHandler%110
                0x000052f0      0x158
 .text.SERCOM2_SPI_InterruptHandler
                0x000052f0      0x158 build/default/production/_ext/17022449/plib_sercom2_spi_master.o
                0x000052f0                SERCOM2_SPI_InterruptHandler

.text.xQueueSemaphoreTake%111
                0x00005448      0x154
 .text.xQueueSemaphoreTake
                0x00005448      0x154 build/default/production/_ext/404212886/queue.o
                0x00005448                xQueueSemaphoreTake

.text.dir_read%112
                0x0000559c      0x138
 .text.dir_read
                0x0000559c      0x138 build/default/production/_ext/411819097/ff.o

.text.f_getcwd%113
                0x000056d4      0x138
 .text.f_getcwd
                0x000056d4      0x138 build/default/production/_ext/411819097/ff.o
                0x000056d4                f_getcwd

.text.f_mkdir%114
                0x0000580c      0x138
 .text.f_mkdir  0x0000580c      0x138 build/default/production/_ext/411819097/ff.o
                0x0000580c                f_mkdir

.text.put_fat%115
                0x00005944      0x12c
 .text.put_fat  0x00005944      0x12c build/default/production/_ext/411819097/ff.o

.text.xQueueGenericSend%116
                0x00005a70      0x124
 .text.xQueueGenericSend
                0x00005a70      0x124 build/default/production/_ext/404212886/queue.o
                0x00005a70                xQueueGenericSend

.text.PORT_Initialize%117
                0x00005b94      0x120
 .text.PORT_Initialize
                0x00005b94      0x120 build/default/production/_ext/1865521619/plib_port.o
                0x00005b94                PORT_Initialize

.text.create_chain%118
                0x00005cb4      0x11e
 .text.create_chain
                0x00005cb4      0x11e build/default/production/_ext/411819097/ff.o

.text.check_fs%119
                0x00005dd4      0x10c
 .text.check_fs
                0x00005dd4      0x10c build/default/production/_ext/411819097/ff.o

.text.CLOCK_Initialize%120
                0x00005ee0      0x104
 .text.CLOCK_Initialize
                0x00005ee0      0x104 build/default/production/_ext/1984496892/plib_clock.o
                0x00005ee0                CLOCK_Initialize

.rodata.uc437%121
                0x00005fe4      0x100
 .rodata.uc437  0x00005fe4      0x100 build/default/production/_ext/411819097/ffunicode.o

.text.DRV_SDSPI_Initialize%122
                0x000060e4       0xfc
 .text.DRV_SDSPI_Initialize
                0x000060e4       0xfc build/default/production/_ext/1100529066/drv_sdspi.o
                0x000060e4                DRV_SDSPI_Initialize

.text.free%123  0x000061e0       0xf8
 .text.free     0x000061e0       0xf8 c:/program files/microchip/xc32/v4.30/bin/bin/../../lib/gcc/pic32c/8.3.1/../../../../pic32c/lib/thumb/v7e-m+fp/hard\libc-musl.a(malloc.o)
                0x000061e0                free

.text.DRV_SPI_Open%124
                0x000062d8       0xec
 .text.DRV_SPI_Open
                0x000062d8       0xec build/default/production/_ext/2070931557/drv_spi.o
                0x000062d8                DRV_SPI_Open

.text.DRV_SDSPI_Open%125
                0x000063c4       0xe8
 .text.DRV_SDSPI_Open
                0x000063c4       0xe8 build/default/production/_ext/1100529066/drv_sdspi.o
                0x000063c4                DRV_SDSPI_Open

.text.f_getfree%126
                0x000064ac       0xda
 .text.f_getfree
                0x000064ac       0xda build/default/production/_ext/411819097/ff.o
                0x000064ac                f_getfree

.text.xTaskRemoveFromEventList%127
                0x00006588       0xd8
 .text.xTaskRemoveFromEventList
                0x00006588       0xd8 build/default/production/_ext/404212886/FreeRTOS_tasks.o
                0x00006588                xTaskRemoveFromEventList

.text.get_fat%128
                0x00006660       0xd0
 .text.get_fat  0x00006660       0xd0 build/default/production/_ext/411819097/ff.o

.text.f_unlink%129
                0x00006730       0xcc
 .text.f_unlink
                0x00006730       0xcc build/default/production/_ext/411819097/ff.o
                0x00006730                f_unlink

.text.dir_next%130
                0x000067fc       0xc8
 .text.dir_next
                0x000067fc       0xc8 build/default/production/_ext/411819097/ff.o

.text.xTaskPriorityInherit%131
                0x000068c4       0xc4
 .text.xTaskPriorityInherit
                0x000068c4       0xc4 build/default/production/_ext/404212886/FreeRTOS_tasks.o
                0x000068c4                xTaskPriorityInherit

.text.f_truncate%132
                0x00006988       0xc2
 .text.f_truncate
                0x00006988       0xc2 build/default/production/_ext/411819097/ff.o
                0x00006988                f_truncate

.text.SYS_TIME_PLIBCallback%133
                0x00006a4c       0xc0
 .text.SYS_TIME_PLIBCallback
                0x00006a4c       0xc0 build/default/production/_ext/101884895/sys_time.o

.rodata.cvt2.8197%134
                0x00006b0c       0xbc
 .rodata.cvt2.8197
                0x00006b0c       0xbc build/default/production/_ext/411819097/ffunicode.o

.text.DRV_SPI_Initialize%135
                0x00006bc8       0xb4
 .text.DRV_SPI_Initialize
                0x00006bc8       0xb4 build/default/production/_ext/2070931557/drv_spi.o
                0x00006bc8                DRV_SPI_Initialize

.text.ff_wtoupper%136
                0x00006c7c       0xb4
 .text.ff_wtoupper
                0x00006c7c       0xb4 build/default/production/_ext/411819097/ffunicode.o
                0x00006c7c                ff_wtoupper

.text.prvAddCurrentTaskToDelayedList%137
                0x00006d30       0xb0
 .text.prvAddCurrentTaskToDelayedList
                0x00006d30       0xb0 build/default/production/_ext/404212886/FreeRTOS_tasks.o

.text.dir_sdi%138
                0x00006de0       0xb0
 .text.dir_sdi  0x00006de0       0xb0 build/default/production/_ext/411819097/ff.o

.text.SYS_TIME_TimerObjectCreate%139
                0x00006e90       0xb0
 .text.SYS_TIME_TimerObjectCreate
                0x00006e90       0xb0 build/default/production/_ext/101884895/sys_time.o

.text.vTaskSwitchContext%140
                0x00006f40       0xa8
 .text.vTaskSwitchContext
                0x00006f40       0xa8 build/default/production/_ext/404212886/FreeRTOS_tasks.o
                0x00006f40                vTaskSwitchContext

.text.NVIC_Initialize%141
                0x00006fe8       0xa4
 .text.NVIC_Initialize
                0x00006fe8       0xa4 build/default/production/_ext/1865468468/plib_nvic.o
                0x00006fe8                NVIC_Initialize

.text.enableAllGPIOs%142
                0x0000708c       0xa4
 .text.enableAllGPIOs
                0x0000708c       0xa4 build/default/production/_ext/1360937237/app.o
                0x0000708c                enableAllGPIOs

.text.disableAllGPIOs%143
                0x00007130       0xa4
 .text.disableAllGPIOs
                0x00007130       0xa4 build/default/production/_ext/1360937237/app.o
                0x00007130                disableAllGPIOs

.text.f_getlabel%144
                0x000071d4       0xa2
 .text.f_getlabel
                0x000071d4       0xa2 build/default/production/_ext/411819097/ff.o
                0x000071d4                f_getlabel

.text.SERCOM4_I2C_InterruptHandler%145
                0x00007278       0xa0
 .text.SERCOM4_I2C_InterruptHandler
                0x00007278       0xa0 build/default/production/_ext/714983638/plib_sercom4_i2c_slave.o
                0x00007278                SERCOM4_I2C_InterruptHandler

.rodata.gDrvSDSPICmdTable%146
                0x00007318       0xa0
 .rodata.gDrvSDSPICmdTable
                0x00007318       0xa0 build/default/production/_ext/1100529066/drv_sdspi.o

.text.vTaskPriorityDisinheritAfterTimeout%147
                0x000073b8       0x9c
 .text.vTaskPriorityDisinheritAfterTimeout
                0x000073b8       0x9c build/default/production/_ext/404212886/FreeRTOS_tasks.o
                0x000073b8                vTaskPriorityDisinheritAfterTimeout

.text.FATFS_unmount%148
                0x00007454       0x9c
 .text.FATFS_unmount
                0x00007454       0x9c build/default/production/_ext/1269487135/sys_fs_fat_interface.o
                0x00007454                FATFS_unmount

.text.SERCOM2_SPI_TransferSetup%149
                0x000074f0       0x9c
 .text.SERCOM2_SPI_TransferSetup
                0x000074f0       0x9c build/default/production/_ext/17022449/plib_sercom2_spi_master.o
                0x000074f0                SERCOM2_SPI_TransferSetup

.text.f_sync%150
                0x0000758c       0x9a
 .text.f_sync   0x0000758c       0x9a build/default/production/_ext/411819097/ff.o
                0x0000758c                f_sync

.text.remove_chain%151
                0x00007626       0x94
 .text.remove_chain
                0x00007626       0x94 build/default/production/_ext/411819097/ff.o

.text.f_opendir%152
                0x000076ba       0x92
 .text.f_opendir
                0x000076ba       0x92 build/default/production/_ext/411819097/ff.o
                0x000076ba                f_opendir

.text.lDRV_SDSPI_ReadResponseWithTimeout%153
                0x0000774c       0x92
 .text.lDRV_SDSPI_ReadResponseWithTimeout
                0x0000774c       0x92 build/default/production/_ext/1100529066/drv_sdspi.o

.text.xQueueGenericReset%154
                0x000077e0       0x90
 .text.xQueueGenericReset
                0x000077e0       0x90 build/default/production/_ext/404212886/queue.o
                0x000077e0                xQueueGenericReset

.text.xTaskPriorityDisinherit%155
                0x00007870       0x8c
 .text.xTaskPriorityDisinherit
                0x00007870       0x8c build/default/production/_ext/404212886/FreeRTOS_tasks.o
                0x00007870                xTaskPriorityDisinherit

.text.sync_fs%156
                0x000078fc       0x8c
 .text.sync_fs  0x000078fc       0x8c build/default/production/_ext/411819097/ff.o

.text.__write_buffered%157
                0x00007988       0x8a
 .text.__write_buffered
                0x00007988       0x8a c:/program files/microchip/xc32/v4.30/bin/bin/../../lib/gcc/pic32c/8.3.1/../../../../pic32c/lib/thumb/v7e-m+fp/hard\libc-musl.a(__stdio_write.o)
                0x00007988                __do_write

.text.SYS_Initialize%158
                0x00007a14       0x88
 .text.SYS_Initialize
                0x00007a14       0x88 build/default/production/_ext/1171490990/initialization.o
                0x00007a14                SYS_Initialize

.rodata.FatFsFunctions%159
                0x00007a9c       0x88
 .rodata.FatFsFunctions
                0x00007a9c       0x88 build/default/production/_ext/1171490990/initialization.o

.text.Reset_Handler%160
                0x00007b24       0x88
 .text.Reset_Handler
                0x00007b24       0x88 build/default/production/_ext/1171490990/startup_xc32.o
                0x00007b24                Reset_Handler

.text.pvPortMalloc%161
                0x00007bac       0x88
 .text.pvPortMalloc
                0x00007bac       0x88 build/default/production/_ext/1665200909/heap_1.o
                0x00007bac                pvPortMalloc

.text.SYS_TIME_AddToList%162
                0x00007c34       0x84
 .text.SYS_TIME_AddToList
                0x00007c34       0x84 build/default/production/_ext/101884895/sys_time.o

.text.DRV_SPI_Lock%163
                0x00007cb8       0x84
 .text.DRV_SPI_Lock
                0x00007cb8       0x84 build/default/production/_ext/2070931557/drv_spi.o
                0x00007cb8                DRV_SPI_Lock

.rodata.ExCvt%164
                0x00007d3c       0x80
 .rodata.ExCvt  0x00007d3c       0x80 build/default/production/_ext/411819097/ff.o

.text.prvUnlockQueue%165
                0x00007dbc       0x7e
 .text.prvUnlockQueue
                0x00007dbc       0x7e build/default/production/_ext/404212886/queue.o

.text.FATFS_mount%166
                0x00007e3c       0x7c
 .text.FATFS_mount
                0x00007e3c       0x7c build/default/production/_ext/1269487135/sys_fs_fat_interface.o
                0x00007e3c                FATFS_mount

.text.SYS_TIME_Initialize%167
                0x00007eb8       0x78
 .text.SYS_TIME_Initialize
                0x00007eb8       0x78 build/default/production/_ext/101884895/sys_time.o
                0x00007eb8                SYS_TIME_Initialize

.text.prvCopyDataToQueue%168
                0x00007f30       0x76
 .text.prvCopyDataToQueue
                0x00007f30       0x76 build/default/production/_ext/404212886/queue.o

.text.__stdio_write_buffered%169
                0x00007fa6       0x76
 .text.__stdio_write_buffered
                0x00007fa6       0x76 c:/program files/microchip/xc32/v4.30/bin/bin/../../lib/gcc/pic32c/8.3.1/../../../../pic32c/lib/thumb/v7e-m+fp/hard\libc-musl.a(__stdio_write.o)
                0x00007fa6                __stdio_write_buffered

.text.f_mount%170
                0x0000801c       0x74
 .text.f_mount  0x0000801c       0x74 build/default/production/_ext/411819097/ff.o
                0x0000801c                f_mount

.text.xQueueGiveFromISR%171
                0x00008090       0x72
 .text.xQueueGiveFromISR
                0x00008090       0x72 build/default/production/_ext/404212886/queue.o
                0x00008090                xQueueGiveFromISR

.text.prvIdleTask%172
                0x00008104       0x70
 .text.prvIdleTask
                0x00008104       0x70 build/default/production/_ext/404212886/FreeRTOS_tasks.o

.text.inc_share%173
                0x00008174       0x70
 .text.inc_share
                0x00008174       0x70 build/default/production/_ext/411819097/ff.o

.text.SYS_FS_Initialize%174
                0x000081e4       0x70
 .text.SYS_FS_Initialize
                0x000081e4       0x70 build/default/production/_ext/1269487135/sys_fs.o
                0x000081e4                SYS_FS_Initialize

.text.vTaskStartScheduler%175
                0x00008254       0x6c
 .text.vTaskStartScheduler
                0x00008254       0x6c build/default/production/_ext/404212886/FreeRTOS_tasks.o
                0x00008254                vTaskStartScheduler

.text.xPortPendSVHandler%176
                0x000082c0       0x64
 .text.xPortPendSVHandler
                0x000082c0       0x64 build/default/production/_ext/246609638/port.o
                0x000082c0                xPortPendSVHandler

.text.SYS_Tasks%177
                0x00008324       0x64
 .text.SYS_Tasks
                0x00008324       0x64 build/default/production/_ext/1171490990/tasks.o
                0x00008324                SYS_Tasks

.text.xTaskCheckForTimeOut%178
                0x00008388       0x60
 .text.xTaskCheckForTimeOut
                0x00008388       0x60 build/default/production/_ext/404212886/FreeRTOS_tasks.o
                0x00008388                xTaskCheckForTimeOut

.text.f_chdir%179
                0x000083e8       0x60
 .text.f_chdir  0x000083e8       0x60 build/default/production/_ext/411819097/ff.o
                0x000083e8                f_chdir

.text.__strchrnul%180
                0x00008448       0x60
 .text.__strchrnul
                0x00008448       0x60 c:/program files/microchip/xc32/v4.30/bin/bin/../../lib/gcc/pic32c/8.3.1/../../../../pic32c/lib/thumb/v7e-m+fp/hard\libc-musl.a(strchrnul.o)
                0x00008448                strchrnul
                0x00008448                __strchrnul

.text.__stdio_read%181
                0x000084a8       0x60
 .text.__stdio_read
                0x000084a8       0x60 c:/program files/microchip/xc32/v4.30/bin/bin/../../lib/gcc/pic32c/8.3.1/../../../../pic32c/lib/thumb/v7e-m+fp/hard\libc-musl.a(__stdio_read.o)
                0x000084a8                __stdio_read

.text.SERCOM4_I2C_Initialize%182
                0x00008508       0x5c
 .text.SERCOM4_I2C_Initialize
                0x00008508       0x5c build/default/production/_ext/714983638/plib_sercom4_i2c_slave.o
                0x00008508                SERCOM4_I2C_Initialize

.text.chk_share%183
                0x00008564       0x5c
 .text.chk_share
                0x00008564       0x5c build/default/production/_ext/411819097/ff.o

.text.get_ldnumber%184
                0x000085c0       0x5c
 .text.get_ldnumber
                0x000085c0       0x5c build/default/production/_ext/411819097/ff.o

.text.dir_clear%185
                0x0000861c       0x5c
 .text.dir_clear
                0x0000861c       0x5c build/default/production/_ext/411819097/ff.o

.text.dir_remove%186
                0x00008678       0x5c
 .text.dir_remove
                0x00008678       0x5c build/default/production/_ext/411819097/ff.o

.text.f_chmod%187
                0x000086d4       0x5c
 .text.f_chmod  0x000086d4       0x5c build/default/production/_ext/411819097/ff.o
                0x000086d4                f_chmod

.text.USART_READ%188
                0x00008730       0x5c
 .text.USART_READ
                0x00008730       0x5c build/default/production/_ext/1360937237/app.o
                0x00008730                USART_READ

.text.__libc_start_init%189
                0x0000878c       0x5c
 .text.__libc_start_init
                0x0000878c       0x5c c:/program files/microchip/xc32/v4.30/bin/bin/../../lib/gcc/pic32c/8.3.1/../../../../pic32c/lib/thumb/v7e-m+fp/hard\libc-musl.a(__libc_start_main.o)
                0x0000878c                __libc_init_array

.text.unbin%190
                0x000087e8       0x5c
 .text.unbin    0x000087e8       0x5c c:/program files/microchip/xc32/v4.30/bin/bin/../../lib/gcc/pic32c/8.3.1/../../../../pic32c/lib/thumb/v7e-m+fp/hard\libc-musl.a(malloc.o)

.rodata%191     0x00008844       0x5c
 .rodata        0x00008844       0x5c c:/program files/microchip/xc32/v4.30/bin/bin/../../lib/gcc/pic32c/8.3.1/../../../../pic32c/lib/thumb/v7e-m+fp/hard\libc-musl.a(malloc.o)

.text.__stdio_close_rw%192
                0x000088a0       0x5c
 .text.__stdio_close_rw
                0x000088a0       0x5c c:/program files/microchip/xc32/v4.30/bin/bin/../../lib/gcc/pic32c/8.3.1/../../../../pic32c/lib/thumb/v7e-m+fp/hard\libc-musl.a(__stdio_close.o)
                0x000088a0                __stdio_close_rw

.text.f_utime%193
                0x000088fc       0x5a
 .text.f_utime  0x000088fc       0x5a build/default/production/_ext/411819097/ff.o
                0x000088fc                f_utime

.text.f_gets%194
                0x00008956       0x5a
 .text.f_gets   0x00008956       0x5a build/default/production/_ext/411819097/ff.o
                0x00008956                f_gets

.text.OSAL_SEM_Create%195
                0x000089b0       0x58
 .text.OSAL_SEM_Create
                0x000089b0       0x58 build/default/production/_ext/1529399856/osal_freertos.o
                0x000089b0                OSAL_SEM_Create

.text.lDRV_SPI_PlibCallbackHandler%196
                0x00008a08       0x58
 .text.lDRV_SPI_PlibCallbackHandler
                0x00008a08       0x58 build/default/production/_ext/2070931557/drv_spi.o

.text.FATFS_open%197
                0x00008a60       0x54
 .text.FATFS_open
                0x00008a60       0x54 build/default/production/_ext/1269487135/sys_fs_fat_interface.o
                0x00008a60                FATFS_open

.text.dir_alloc%198
                0x00008ab4       0x54
 .text.dir_alloc
                0x00008ab4       0x54 build/default/production/_ext/411819097/ff.o

.rodata%199     0x00008b08       0x54
 .rodata        0x00008b08       0x54 build/default/production/_ext/411819097/ff.o

.text.SYS_TIME_CallbackRegisterMS%200
                0x00008b5c       0x54
 .text.SYS_TIME_CallbackRegisterMS
                0x00008b5c       0x54 build/default/production/_ext/101884895/sys_time.o
                0x00008b5c                SYS_TIME_CallbackRegisterMS

.text.SYS_FS_MEDIA_MANAGER_SectorRead%201
                0x00008bb0       0x54
 .text.SYS_FS_MEDIA_MANAGER_SectorRead
                0x00008bb0       0x54 build/default/production/_ext/1269487135/sys_fs_media_manager.o
                0x00008bb0                SYS_FS_MEDIA_MANAGER_SectorRead

.text.SERCOM3_USART_Read%202
                0x00008c04       0x50
 .text.SERCOM3_USART_Read
                0x00008c04       0x50 build/default/production/_ext/504274921/plib_sercom3_usart.o
                0x00008c04                SERCOM3_USART_Read

.text.RTC_Initialize%203
                0x00008c54       0x50
 .text.RTC_Initialize
                0x00008c54       0x50 build/default/production/_ext/60180175/plib_rtc_timer.o
                0x00008c54                RTC_Initialize

.text.SYS_TIME_RemoveFromList%204
                0x00008ca4       0x50
 .text.SYS_TIME_RemoveFromList
                0x00008ca4       0x50 build/default/production/_ext/101884895/sys_time.o

.text.f_readdir%205
                0x00008cf4       0x4e
 .text.f_readdir
                0x00008cf4       0x4e build/default/production/_ext/411819097/ff.o
                0x00008cf4                f_readdir

.text.DRV_SDSPI_Close%206
                0x00008d44       0x4c
 .text.DRV_SDSPI_Close
                0x00008d44       0x4c build/default/production/_ext/1100529066/drv_sdspi.o
                0x00008d44                DRV_SDSPI_Close

.text.lDRV_SPI_DriverHandleValidate%207
                0x00008d90       0x4c
 .text.lDRV_SPI_DriverHandleValidate
                0x00008d90       0x4c build/default/production/_ext/2070931557/drv_spi.o

.text.__pic32c_data_initialization%208
                0x00008ddc       0x4c
 .text.__pic32c_data_initialization
                0x00008ddc       0x4c c:/program files/microchip/xc32/v4.30/bin/bin/../../lib/gcc/pic32c/8.3.1/../../../../pic32c/lib/thumb/v7e-m+fp/hard\libpic32c.a(data_init.o)
                0x00008ddc                __pic32c_data_initialization

.text.setvbuf%209
                0x00008e28       0x4c
 .text.setvbuf  0x00008e28       0x4c c:/program files/microchip/xc32/v4.30/bin/bin/../../lib/gcc/pic32c/8.3.1/../../../../pic32c/lib/thumb/v7e-m+fp/hard\libc-musl.a(setvbuf.o)
                0x00008e28                setvbuf

.text.xQueueGenericCreate%210
                0x00008e74       0x4a
 .text.xQueueGenericCreate
                0x00008e74       0x4a build/default/production/_ext/404212886/queue.o
                0x00008e74                xQueueGenericCreate

.text.xPortStartScheduler%211
                0x00008ec0       0x48
 .text.xPortStartScheduler
                0x00008ec0       0x48 build/default/production/_ext/246609638/port.o
                0x00008ec0                xPortStartScheduler

.text.sync_window%212
                0x00008f08       0x48
 .text.sync_window
                0x00008f08       0x48 build/default/production/_ext/411819097/ff.o

.text.lDRV_SDSPI_DriverHandleValidate%213
                0x00008f50       0x48
 .text.lDRV_SDSPI_DriverHandleValidate
                0x00008f50       0x48 build/default/production/_ext/1100529066/drv_sdspi.o

.text.ff_uni2oem%214
                0x00008f98       0x48
 .text.ff_uni2oem
                0x00008f98       0x48 build/default/production/_ext/411819097/ffunicode.o
                0x00008f98                ff_uni2oem

.text.validate%215
                0x00008fe0       0x46
 .text.validate
                0x00008fe0       0x46 build/default/production/_ext/411819097/ff.o

.text.SERCOM3_USART_Write%216
                0x00009028       0x44
 .text.SERCOM3_USART_Write
                0x00009028       0x44 build/default/production/_ext/504274921/plib_sercom3_usart.o
                0x00009028                SERCOM3_USART_Write

.text.f_stat%217
                0x0000906c       0x44
 .text.f_stat   0x0000906c       0x44 build/default/production/_ext/411819097/ff.o
                0x0000906c                f_stat

.text.SYS_TIME_TimerStart%218
                0x000090b0       0x44
 .text.SYS_TIME_TimerStart
                0x000090b0       0x44 build/default/production/_ext/101884895/sys_time.o
                0x000090b0                SYS_TIME_TimerStart

.text.SYS_INT_SourceDisable%219
                0x000090f4       0x44
 .text.SYS_INT_SourceDisable
                0x000090f4       0x44 build/default/production/_ext/1881668453/sys_int.o
                0x000090f4                SYS_INT_SourceDisable

.text%220       0x00009138       0x40
 .text          0x00009138       0x40 c:/program files/microchip/xc32/v4.30/bin/bin/../../lib/gcc/pic32c/8.3.1/thumb/v7e-m+fp/hard/crtbegin.o

.text.disk_checkCommandStatus%221
                0x00009178       0x40
 .text.disk_checkCommandStatus
                0x00009178       0x40 build/default/production/_ext/565198302/diskio.o

.text.SYS_FS_MEDIA_MANAGER_Register%222
                0x000091b8       0x40
 .text.SYS_FS_MEDIA_MANAGER_Register
                0x000091b8       0x40 build/default/production/_ext/1269487135/sys_fs_media_manager.o
                0x000091b8                SYS_FS_MEDIA_MANAGER_Register

.text.adjust_size%223
                0x000091f8       0x40
 .text.adjust_size
                0x000091f8       0x40 c:/program files/microchip/xc32/v4.30/bin/bin/../../lib/gcc/pic32c/8.3.1/../../../../pic32c/lib/thumb/v7e-m+fp/hard\libc-musl.a(malloc.o)

.text.FATFS_getclusters%224
                0x00009238       0x3e
 .text.FATFS_getclusters
                0x00009238       0x3e build/default/production/_ext/1269487135/sys_fs_fat_interface.o
                0x00009238                FATFS_getclusters

.text.putc_bfd%225
                0x00009276       0x3e
 .text.putc_bfd
                0x00009276       0x3e build/default/production/_ext/411819097/ff.o

.text.move_window%226
                0x000092b4       0x3c
 .text.move_window
                0x000092b4       0x3c build/default/production/_ext/411819097/ff.o

.text.SYS_TIME_GetTimerObject%227
                0x000092f0       0x3c
 .text.SYS_TIME_GetTimerObject
                0x000092f0       0x3c build/default/production/_ext/101884895/sys_time.o

.text.SYS_TIME_ResourceLock%228
                0x0000932c       0x3c
 .text.SYS_TIME_ResourceLock
                0x0000932c       0x3c build/default/production/_ext/101884895/sys_time.o

.text.SYS_TIME_TimerDestroy%229
                0x00009368       0x3c
 .text.SYS_TIME_TimerDestroy
                0x00009368       0x3c build/default/production/_ext/101884895/sys_time.o
                0x00009368                SYS_TIME_TimerDestroy

.text.OSAL_SEM_PostISR%230
                0x000093a4       0x3c
 .text.OSAL_SEM_PostISR
                0x000093a4       0x3c build/default/production/_ext/1529399856/osal_freertos.o
                0x000093a4                OSAL_SEM_PostISR

.text.SERCOM2_SPI_Initialize%231
                0x000093e0       0x3c
 .text.SERCOM2_SPI_Initialize
                0x000093e0       0x3c build/default/production/_ext/17022449/plib_sercom2_spi_master.o
                0x000093e0                SERCOM2_SPI_Initialize

.text.putc_flush%232
                0x0000941c       0x3a
 .text.putc_flush
                0x0000941c       0x3a build/default/production/_ext/411819097/ff.o

.text.disk_ioctl%233
                0x00009456       0x3a
 .text.disk_ioctl
                0x00009456       0x3a build/default/production/_ext/565198302/diskio.o
                0x00009456                disk_ioctl

.text.bin_index%234
                0x00009490       0x38
 .text.bin_index
                0x00009490       0x38 c:/program files/microchip/xc32/v4.30/bin/bin/../../lib/gcc/pic32c/8.3.1/../../../../pic32c/lib/thumb/v7e-m+fp/hard\libc-musl.a(malloc.o)

.text.vTaskDelay%235
                0x000094c8       0x34
 .text.vTaskDelay
                0x000094c8       0x34 build/default/production/_ext/404212886/FreeRTOS_tasks.o
                0x000094c8                vTaskDelay

.text.vListInsert%236
                0x000094fc       0x34
 .text.vListInsert
                0x000094fc       0x34 build/default/production/_ext/404212886/list.o
                0x000094fc                vListInsert

.text.SERCOM3_USART_Initialize%237
                0x00009530       0x34
 .text.SERCOM3_USART_Initialize
                0x00009530       0x34 build/default/production/_ext/504274921/plib_sercom3_usart.o
                0x00009530                SERCOM3_USART_Initialize

.text.f_close%238
                0x00009564       0x34
 .text.f_close  0x00009564       0x34 build/default/production/_ext/411819097/ff.o
                0x00009564                f_close

.text.f_fdisk%239
                0x00009598       0x34
 .text.f_fdisk  0x00009598       0x34 build/default/production/_ext/411819097/ff.o
                0x00009598                f_fdisk

.text.DRV_SDSPI_CommandStatusGet%240
                0x000095cc       0x34
 .text.DRV_SDSPI_CommandStatusGet
                0x000095cc       0x34 build/default/production/_ext/1100529066/drv_sdspi.o
                0x000095cc                DRV_SDSPI_CommandStatusGet

.text.DRV_SDSPI_SPIWriteWithChipSelectDisabled%241
                0x00009600       0x34
 .text.DRV_SDSPI_SPIWriteWithChipSelectDisabled
                0x00009600       0x34 build/default/production/_ext/1100529066/drv_sdspi_driver_interface.o
                0x00009600                DRV_SDSPI_SPIWriteWithChipSelectDisabled

.text.trim%242  0x00009634       0x32
 .text.trim     0x00009634       0x32 c:/program files/microchip/xc32/v4.30/bin/bin/../../lib/gcc/pic32c/8.3.1/../../../../pic32c/lib/thumb/v7e-m+fp/hard\libc-musl.a(malloc.o)

.text.SERCOM3_USART_ErrorClear%243
                0x00009668       0x30
 .text.SERCOM3_USART_ErrorClear
                0x00009668       0x30 build/default/production/_ext/504274921/plib_sercom3_usart.o

.rodata.sdspiMediaFunctions%244
                0x00009698       0x30
 .rodata.sdspiMediaFunctions
                0x00009698       0x30 build/default/production/_ext/1100529066/drv_sdspi_file_system.o

.text.dec_share%245
                0x000096c8       0x30
 .text.dec_share
                0x000096c8       0x30 build/default/production/_ext/411819097/ff.o

.text.f_puts%246
                0x000096f8       0x30
 .text.f_puts   0x000096f8       0x30 build/default/production/_ext/411819097/ff.o
                0x000096f8                f_puts

.text.disk_write%247
                0x00009728       0x30
 .text.disk_write
                0x00009728       0x30 build/default/production/_ext/565198302/diskio.o
                0x00009728                disk_write

.text.SYS_FS_MEDIA_MANAGER_EventHandler%248
                0x00009758       0x30
 .text.SYS_FS_MEDIA_MANAGER_EventHandler
                0x00009758       0x30 build/default/production/_ext/1269487135/sys_fs_media_manager.o

.text.alloc_rev%249
                0x00009788       0x30
 .text.alloc_rev
                0x00009788       0x30 c:/program files/microchip/xc32/v4.30/bin/bin/../../lib/gcc/pic32c/8.3.1/../../../../pic32c/lib/thumb/v7e-m+fp/hard\libc-musl.a(malloc.o)

.text%250       0x000097b8       0x30
 .text          0x000097b8       0x30 c:/program files/microchip/xc32/v4.30/bin/bin/../../lib/gcc/pic32c/8.3.1/thumb/v7e-m+fp/hard\libgcc.a(_aeabi_uldivmod.o)
                0x000097b8                __aeabi_uldivmod

.text.pxPortInitialiseStack%251
                0x000097e8       0x2c
 .text.pxPortInitialiseStack
                0x000097e8       0x2c build/default/production/_ext/246609638/port.o
                0x000097e8                pxPortInitialiseStack

.text.xPortSysTickHandler%252
                0x00009814       0x2c
 .text.xPortSysTickHandler
                0x00009814       0x2c build/default/production/_ext/246609638/port.o
                0x00009814                xPortSysTickHandler

.text.FATFS_opendir%253
                0x00009840       0x2c
 .text.FATFS_opendir
                0x00009840       0x2c build/default/production/_ext/1269487135/sys_fs_fat_interface.o
                0x00009840                FATFS_opendir

.text.RTC_InterruptHandler%254
                0x0000986c       0x2c
 .text.RTC_InterruptHandler
                0x0000986c       0x2c build/default/production/_ext/60180175/plib_rtc_timer.o
                0x0000986c                RTC_InterruptHandler

.text.disk_read%255
                0x00009898       0x2c
 .text.disk_read
                0x00009898       0x2c build/default/production/_ext/565198302/diskio.o
                0x00009898                disk_read

.rodata%256     0x000098c4       0x2c
 .rodata        0x000098c4       0x2c build/default/production/_ext/1171490990/tasks.o

.text.ff_oem2uni%257
                0x000098f0       0x2c
 .text.ff_oem2uni
                0x000098f0       0x2c build/default/production/_ext/411819097/ffunicode.o
                0x000098f0                ff_oem2uni

.text.alloc_fwd%258
                0x0000991c       0x2c
 .text.alloc_fwd
                0x0000991c       0x2c c:/program files/microchip/xc32/v4.30/bin/bin/../../lib/gcc/pic32c/8.3.1/../../../../pic32c/lib/thumb/v7e-m+fp/hard\libc-musl.a(malloc.o)

.text._sbrk%259
                0x00009948       0x2c
 .text._sbrk    0x00009948       0x2c c:/program files/microchip/xc32/v4.30/bin/bin/../../lib/gcc/pic32c/8.3.1/../../../../pic32c/lib/thumb/v7e-m+fp/hard\libpic32c.a(sbrk.o)
                0x00009948                _sbrk

.text.f_closedir%260
                0x00009974       0x2a
 .text.f_closedir
                0x00009974       0x2a build/default/production/_ext/411819097/ff.o
                0x00009974                f_closedir

.text.__readv%261
                0x0000999e       0x2a
 .text.__readv  0x0000999e       0x2a c:/program files/microchip/xc32/v4.30/bin/bin/../../lib/gcc/pic32c/8.3.1/../../../../pic32c/lib/thumb/v7e-m+fp/hard\libc-musl.a(readv.o)
                0x0000999e                readv

.text.__writev%262
                0x000099c8       0x2a
 .text.__writev
                0x000099c8       0x2a c:/program files/microchip/xc32/v4.30/bin/bin/../../lib/gcc/pic32c/8.3.1/../../../../pic32c/lib/thumb/v7e-m+fp/hard\libc-musl.a(writev.o)
                0x000099c8                writev

.rodata.drvSPI0remapDataBits%263
                0x000099f4       0x28
 .rodata.drvSPI0remapDataBits
                0x000099f4       0x28 build/default/production/_ext/1171490990/initialization.o

.text.prvPortStartFirstTask%264
                0x00009a1c       0x28
 .text.prvPortStartFirstTask
                0x00009a1c       0x28 build/default/production/_ext/246609638/port.o

.text.vPortSetupTimerInterrupt%265
                0x00009a44       0x28
 .text.vPortSetupTimerInterrupt
                0x00009a44       0x28 build/default/production/_ext/246609638/port.o
                0x00009a44                vPortSetupTimerInterrupt

.text.prvResetNextTaskUnblockTime%266
                0x00009a6c       0x28
 .text.prvResetNextTaskUnblockTime
                0x00009a6c       0x28 build/default/production/_ext/404212886/FreeRTOS_tasks.o

.text.FATFS_mkfs%267
                0x00009a94       0x28
 .text.FATFS_mkfs
                0x00009a94       0x28 build/default/production/_ext/1269487135/sys_fs_fat_interface.o
                0x00009a94                FATFS_mkfs

.text.tchar2uni%268
                0x00009abc       0x28
 .text.tchar2uni
                0x00009abc       0x28 build/default/production/_ext/411819097/ff.o

.text.SYS_TIME_ResourceUnlock%269
                0x00009ae4       0x28
 .text.SYS_TIME_ResourceUnlock
                0x00009ae4       0x28 build/default/production/_ext/101884895/sys_time.o

.text.DRV_SDSPI_IsAttached%270
                0x00009b0c       0x28
 .text.DRV_SDSPI_IsAttached
                0x00009b0c       0x28 build/default/production/_ext/1100529066/drv_sdspi.o
                0x00009b0c                DRV_SDSPI_IsAttached

.text.DRV_SPI_TransferSetup%271
                0x00009b34       0x28
 .text.DRV_SPI_TransferSetup
                0x00009b34       0x28 build/default/production/_ext/2070931557/drv_spi.o
                0x00009b34                DRV_SPI_TransferSetup

.text.__towrite_rw%272
                0x00009b5c       0x28
 .text.__towrite_rw
                0x00009b5c       0x28 c:/program files/microchip/xc32/v4.30/bin/bin/../../lib/gcc/pic32c/8.3.1/../../../../pic32c/lib/thumb/v7e-m+fp/hard\libc-musl.a(__towrite_rw.o)
                0x00009b5c                __towrite_rw
                0x00009b5c                __towrite_rw_needed

.text.xQueueCreateCountingSemaphore%273
                0x00009b84       0x26
 .text.xQueueCreateCountingSemaphore
                0x00009b84       0x26 build/default/production/_ext/404212886/queue.o
                0x00009b84                xQueueCreateCountingSemaphore

.text.f_putc%274
                0x00009baa       0x26
 .text.f_putc   0x00009baa       0x26 build/default/production/_ext/411819097/ff.o
                0x00009baa                f_putc

.text.get_fattime%275
                0x00009bd0       0x26
 .text.get_fattime
                0x00009bd0       0x26 build/default/production/_ext/565198302/diskio.o
                0x00009bd0                get_fattime

.text.DRV_SDSPI_SPISpeedSetup%276
                0x00009bf6       0x26
 .text.DRV_SDSPI_SPISpeedSetup
                0x00009bf6       0x26 build/default/production/_ext/1100529066/drv_sdspi_driver_interface.o
                0x00009bf6                DRV_SDSPI_SPISpeedSetup

.text.vPortSVCHandler%277
                0x00009c20       0x24
 .text.vPortSVCHandler
                0x00009c20       0x24 build/default/production/_ext/246609638/port.o
                0x00009c20                vPortSVCHandler

.text.xQueueCreateMutex%278
                0x00009c44       0x24
 .text.xQueueCreateMutex
                0x00009c44       0x24 build/default/production/_ext/404212886/queue.o
                0x00009c44                xQueueCreateMutex

.text.uxListRemove%279
                0x00009c68       0x24
 .text.uxListRemove
                0x00009c68       0x24 build/default/production/_ext/404212886/list.o
                0x00009c68                uxListRemove

.text.f_chdrive%280
                0x00009c8c       0x24
 .text.f_chdrive
                0x00009c8c       0x24 build/default/production/_ext/411819097/ff.o
                0x00009c8c                f_chdrive

.text.DRV_SDSPI_CardDetectPollingTimerStart%281
                0x00009cb0       0x24
 .text.DRV_SDSPI_CardDetectPollingTimerStart
                0x00009cb0       0x24 build/default/production/_ext/1100529066/drv_sdspi_driver_interface.o
                0x00009cb0                DRV_SDSPI_CardDetectPollingTimerStart

.text.DRV_SDSPI_CmdResponseTimerStart%282
                0x00009cd4       0x24
 .text.DRV_SDSPI_CmdResponseTimerStart
                0x00009cd4       0x24 build/default/production/_ext/1100529066/drv_sdspi_driver_interface.o
                0x00009cd4                DRV_SDSPI_CmdResponseTimerStart

.text.DRV_SDSPI_TimerStart%283
                0x00009cf8       0x24
 .text.DRV_SDSPI_TimerStart
                0x00009cf8       0x24 build/default/production/_ext/1100529066/drv_sdspi_driver_interface.o
                0x00009cf8                DRV_SDSPI_TimerStart

.rodata%284     0x00009d1c       0x24
 .rodata        0x00009d1c       0x24 build/default/production/_ext/1360937237/app.o

.text.FATFS_chdrive%285
                0x00009d40       0x22
 .text.FATFS_chdrive
                0x00009d40       0x22 build/default/production/_ext/1269487135/sys_fs_fat_interface.o
                0x00009d40                FATFS_chdrive

.text.SYS_FS_MEDIA_MANAGER_IsFSFat%286
                0x00009d62       0x22
 .text.SYS_FS_MEDIA_MANAGER_IsFSFat
                0x00009d62       0x22 build/default/production/_ext/1269487135/sys_fs_media_manager.o

.rodata.drvSDSPI0InitData%287
                0x00009d84       0x20
 .rodata.drvSDSPI0InitData
                0x00009d84       0x20 build/default/production/_ext/1171490990/initialization.o

.text.prvTaskExitError%288
                0x00009da4       0x20
 .text.prvTaskExitError
                0x00009da4       0x20 build/default/production/_ext/246609638/port.o

.text.vPortEnterCritical%289
                0x00009dc4       0x20
 .text.vPortEnterCritical
                0x00009dc4       0x20 build/default/production/_ext/246609638/port.o
                0x00009dc4                vPortEnterCritical

.text.ld_clust%290
                0x00009de4       0x20
 .text.ld_clust
                0x00009de4       0x20 build/default/production/_ext/411819097/ff.o

.text.diskEventHandler%291
                0x00009e04       0x20
 .text.diskEventHandler
                0x00009e04       0x20 build/default/production/_ext/565198302/diskio.o
                0x00009e04                diskEventHandler

.text.SYS_FS_MEDIA_MANAGER_TransferTask%292
                0x00009e24       0x20
 .text.SYS_FS_MEDIA_MANAGER_TransferTask
                0x00009e24       0x20 build/default/production/_ext/1269487135/sys_fs_media_manager.o
                0x00009e24                SYS_FS_MEDIA_MANAGER_TransferTask

.rodata%293     0x00009e44       0x20
 .rodata        0x00009e44       0x20 build/default/production/_ext/1269487135/sys_fs_media_manager.o

.text.DRV_SDSPI_GeometryGet%294
                0x00009e64       0x20
 .text.DRV_SDSPI_GeometryGet
                0x00009e64       0x20 build/default/production/_ext/1100529066/drv_sdspi.o
                0x00009e64                DRV_SDSPI_GeometryGet

.text.SYS_INT_SourceRestore%295
                0x00009e84       0x20
 .text.SYS_INT_SourceRestore
                0x00009e84       0x20 build/default/production/_ext/1881668453/sys_int.o
                0x00009e84                SYS_INT_SourceRestore

.text.WDT_Enable%296
                0x00009ea4       0x20
 .text.WDT_Enable
                0x00009ea4       0x20 build/default/production/_ext/60184501/plib_wdt.o
                0x00009ea4                WDT_Enable

.text.lock_bin%297
                0x00009ec4       0x20
 .text.lock_bin
                0x00009ec4       0x20 c:/program files/microchip/xc32/v4.30/bin/bin/../../lib/gcc/pic32c/8.3.1/../../../../pic32c/lib/thumb/v7e-m+fp/hard\libc-musl.a(malloc.o)

.text.read%298  0x00009ee4       0x1e
 .text.read     0x00009ee4       0x1e build/default/production/_ext/163028504/xc32_monitor.o
                0x00009ee4                read

.text.FATFS_close%299
                0x00009f02       0x1e
 .text.FATFS_close
                0x00009f02       0x1e build/default/production/_ext/1269487135/sys_fs_fat_interface.o
                0x00009f02                FATFS_close

.text.FATFS_closedir%300
                0x00009f20       0x1e
 .text.FATFS_closedir
                0x00009f20       0x1e build/default/production/_ext/1269487135/sys_fs_fat_interface.o
                0x00009f20                FATFS_closedir

.text.sum_sfn%301
                0x00009f3e       0x1e
 .text.sum_sfn  0x00009f3e       0x1e build/default/production/_ext/411819097/ff.o

.text.OSAL_SEM_Pend%302
                0x00009f5c       0x1e
 .text.OSAL_SEM_Pend
                0x00009f5c       0x1e build/default/production/_ext/1529399856/osal_freertos.o
                0x00009f5c                OSAL_SEM_Pend

.text.OSAL_MUTEX_Lock%303
                0x00009f7a       0x1e
 .text.OSAL_MUTEX_Lock
                0x00009f7a       0x1e build/default/production/_ext/1529399856/osal_freertos.o
                0x00009f7a                OSAL_MUTEX_Lock

.text.__dinit_copy%304
                0x00009f98       0x1e
 .text.__dinit_copy
                0x00009f98       0x1e c:/program files/microchip/xc32/v4.30/bin/bin/../../lib/gcc/pic32c/8.3.1/../../../../pic32c/lib/thumb/v7e-m+fp/hard\libpic32c.a(pic32_data_init_copy.o)
                0x00009f98                __dinit_copy_needed
                0x00009f98                __dinit_copy

.text.write%305
                0x00009fb6       0x1c
 .text.write    0x00009fb6       0x1c build/default/production/_ext/163028504/xc32_monitor.o
                0x00009fb6                write

.text.vTaskPlaceOnEventList%306
                0x00009fd4       0x1c
 .text.vTaskPlaceOnEventList
                0x00009fd4       0x1c build/default/production/_ext/404212886/FreeRTOS_tasks.o
                0x00009fd4                vTaskPlaceOnEventList

.text.pvTaskIncrementMutexHeldCount%307
                0x00009ff0       0x1c
 .text.pvTaskIncrementMutexHeldCount
                0x00009ff0       0x1c build/default/production/_ext/404212886/FreeRTOS_tasks.o
                0x00009ff0                pvTaskIncrementMutexHeldCount

.text.SERCOM3_USART_ErrorGet%308
                0x0000a00c       0x1c
 .text.SERCOM3_USART_ErrorGet
                0x0000a00c       0x1c build/default/production/_ext/504274921/plib_sercom3_usart.o
                0x0000a00c                SERCOM3_USART_ErrorGet

.text.RTC_Timer32Stop%309
                0x0000a028       0x1c
 .text.RTC_Timer32Stop
                0x0000a028       0x1c build/default/production/_ext/60180175/plib_rtc_timer.o
                0x0000a028                RTC_Timer32Stop

.text.SYS_FS_MEDIA_MANAGER_GetMediaGeometry%310
                0x0000a044       0x1c
 .text.SYS_FS_MEDIA_MANAGER_GetMediaGeometry
                0x0000a044       0x1c build/default/production/_ext/1269487135/sys_fs_media_manager.o
                0x0000a044                SYS_FS_MEDIA_MANAGER_GetMediaGeometry

.text.lDRV_SDSPI_EnterIdleState%311
                0x0000a060       0x1c
 .text.lDRV_SDSPI_EnterIdleState
                0x0000a060       0x1c build/default/production/_ext/1100529066/drv_sdspi.o

.text.memcmp%312
                0x0000a07c       0x1c
 .text.memcmp   0x0000a07c       0x1c c:/program files/microchip/xc32/v4.30/bin/bin/../../lib/gcc/pic32c/8.3.1/../../../../pic32c/lib/thumb/v7e-m+fp/hard\libc-musl.a(memcmp.o)
                0x0000a07c                memcmp

.text.FATFS_readdir%313
                0x0000a098       0x1a
 .text.FATFS_readdir
                0x0000a098       0x1a build/default/production/_ext/1269487135/sys_fs_fat_interface.o
                0x0000a098                FATFS_readdir

.text.st_clust%314
                0x0000a0b2       0x1a
 .text.st_clust
                0x0000a0b2       0x1a build/default/production/_ext/411819097/ff.o

.text.APP_Initialize%315
                0x0000a0cc       0x1a
 .text.APP_Initialize
                0x0000a0cc       0x1a build/default/production/_ext/1360937237/app.o
                0x0000a0cc                APP_Initialize

.rodata.drvSPI0InitData%316
                0x0000a0e8       0x18
 .rodata.drvSPI0InitData
                0x0000a0e8       0x18 build/default/production/_ext/1171490990/initialization.o

.text.vTaskInternalSetTimeOutState%317
                0x0000a100       0x18
 .text.vTaskInternalSetTimeOutState
                0x0000a100       0x18 build/default/production/_ext/404212886/FreeRTOS_tasks.o
                0x0000a100                vTaskInternalSetTimeOutState

.text.FATFS_stat%318
                0x0000a118       0x18
 .text.FATFS_stat
                0x0000a118       0x18 build/default/production/_ext/1269487135/sys_fs_fat_interface.o
                0x0000a118                FATFS_stat

.text.RTC_Timer32Start%319
                0x0000a130       0x18
 .text.RTC_Timer32Start
                0x0000a130       0x18 build/default/production/_ext/60180175/plib_rtc_timer.o
                0x0000a130                RTC_Timer32Start

.text.lDRV_SDSPI_0_Tasks%320
                0x0000a148       0x18
 .text.lDRV_SDSPI_0_Tasks
                0x0000a148       0x18 build/default/production/_ext/1171490990/tasks.o

.text.SYS_FS_MEDIA_T_MANAGER_HandleMediaDetach%321
                0x0000a160       0x18
 .text.SYS_FS_MEDIA_T_MANAGER_HandleMediaDetach
                0x0000a160       0x18 build/default/production/_ext/1269487135/sys_fs_media_manager.o

.text.OSAL_MUTEX_Create%322
                0x0000a178       0x18
 .text.OSAL_MUTEX_Create
                0x0000a178       0x18 build/default/production/_ext/1529399856/osal_freertos.o
                0x0000a178                OSAL_MUTEX_Create

.text.OSAL_MUTEX_Unlock%323
                0x0000a190       0x18
 .text.OSAL_MUTEX_Unlock
                0x0000a190       0x18 build/default/production/_ext/1529399856/osal_freertos.o
                0x0000a190                OSAL_MUTEX_Unlock

.text.WDT_TimeoutPeriodSet%324
                0x0000a1a8       0x18
 .text.WDT_TimeoutPeriodSet
                0x0000a1a8       0x18 build/default/production/_ext/60184501/plib_wdt.o
                0x0000a1a8                WDT_TimeoutPeriodSet

.text.WDT_Clear%325
                0x0000a1c0       0x18
 .text.WDT_Clear
                0x0000a1c0       0x18 build/default/production/_ext/60184501/plib_wdt.o
                0x0000a1c0                WDT_Clear

.text.__towrite%326
                0x0000a1d8       0x18
 .text.__towrite
                0x0000a1d8       0x18 c:/program files/microchip/xc32/v4.30/bin/bin/../../lib/gcc/pic32c/8.3.1/../../../../pic32c/lib/thumb/v7e-m+fp/hard\libc-musl.a(__towrite.o)
                0x0000a1d8                __towrite

.text.prvIsQueueEmpty%327
                0x0000a1f0       0x16
 .text.prvIsQueueEmpty
                0x0000a1f0       0x16 build/default/production/_ext/404212886/queue.o

.text.vListInitialise%328
                0x0000a206       0x16
 .text.vListInitialise
                0x0000a206       0x16 build/default/production/_ext/404212886/list.o
                0x0000a206                vListInitialise

.text.ld_dword%329
                0x0000a21c       0x16
 .text.ld_dword
                0x0000a21c       0x16 build/default/production/_ext/411819097/ff.o

.text.clst2sect%330
                0x0000a232       0x16
 .text.clst2sect
                0x0000a232       0x16 build/default/production/_ext/411819097/ff.o

.text.DRV_SDSPI_Read%331
                0x0000a248       0x16
 .text.DRV_SDSPI_Read
                0x0000a248       0x16 build/default/production/_ext/1100529066/drv_sdspi.o
                0x0000a248                DRV_SDSPI_Read

.text.DRV_SDSPI_Write%332
                0x0000a25e       0x16
 .text.DRV_SDSPI_Write
                0x0000a25e       0x16 build/default/production/_ext/1100529066/drv_sdspi.o
                0x0000a25e                DRV_SDSPI_Write

.text.DRV_SDSPI_CmdResponseTimerStop%333
                0x0000a274       0x16
 .text.DRV_SDSPI_CmdResponseTimerStop
                0x0000a274       0x16 build/default/production/_ext/1100529066/drv_sdspi_driver_interface.o
                0x0000a274                DRV_SDSPI_CmdResponseTimerStop

.text.DRV_SDSPI_TimerStop%334
                0x0000a28a       0x16
 .text.DRV_SDSPI_TimerStop
                0x0000a28a       0x16 build/default/production/_ext/1100529066/drv_sdspi_driver_interface.o
                0x0000a28a                DRV_SDSPI_TimerStop

.text.DRV_SPI_ReadTransfer%335
                0x0000a2a0       0x16
 .text.DRV_SPI_ReadTransfer
                0x0000a2a0       0x16 build/default/production/_ext/2070931557/drv_spi.o
                0x0000a2a0                DRV_SPI_ReadTransfer

.text.__expand_heap%336
                0x0000a2b6       0x16
 .text.__expand_heap
                0x0000a2b6       0x16 c:/program files/microchip/xc32/v4.30/bin/bin/../../lib/gcc/pic32c/8.3.1/../../../../pic32c/lib/thumb/v7e-m+fp/hard\libc-musl.a(expand_heap.o)
                0x0000a2b6                __expand_heap

.rodata.sysTimePlibAPI%337
                0x0000a2cc       0x14
 .rodata.sysTimePlibAPI
                0x0000a2cc       0x14 build/default/production/_ext/1171490990/initialization.o

.text.vPortEnableVFP%338
                0x0000a2e0       0x14
 .text.vPortEnableVFP
                0x0000a2e0       0x14 build/default/production/_ext/246609638/port.o

.text.vPortExitCritical%339
                0x0000a2f4       0x14
 .text.vPortExitCritical
                0x0000a2f4       0x14 build/default/production/_ext/246609638/port.o
                0x0000a2f4                vPortExitCritical

.text.DRV_SDSPI_RegisterWithSysFs%340
                0x0000a308       0x14
 .text.DRV_SDSPI_RegisterWithSysFs
                0x0000a308       0x14 build/default/production/_ext/1100529066/drv_sdspi_file_system.o
                0x0000a308                DRV_SDSPI_RegisterWithSysFs

.rodata.badchr.8997%341
                0x0000a31c       0x14
 .rodata.badchr.8997
                0x0000a31c       0x14 build/default/production/_ext/411819097/ff.o

.rodata.gSYSFSVolumeName%342
                0x0000a330       0x14
 .rodata.gSYSFSVolumeName
                0x0000a330       0x14 build/default/production/_ext/1269487135/sys_fs_media_manager.o

.text.SERCOM2_SPI_IsTransmitterBusy%343
                0x0000a344       0x14
 .text.SERCOM2_SPI_IsTransmitterBusy
                0x0000a344       0x14 build/default/production/_ext/17022449/plib_sercom2_spi_master.o
                0x0000a344                SERCOM2_SPI_IsTransmitterBusy

.rodata%344     0x0000a358       0x14
 .rodata        0x0000a358       0x14 c:/program files/microchip/xc32/v4.30/bin/bin/../../lib/gcc/pic32c/8.3.1/../../../../pic32c/lib/thumb/v7e-m+fp/hard\libpic32c.a(data_init.o)

.text.__init_stdout%345
                0x0000a36c       0x14
 .text.__init_stdout
                0x0000a36c       0x14 c:/program files/microchip/xc32/v4.30/bin/bin/../../lib/gcc/pic32c/8.3.1/../../../../pic32c/lib/thumb/v7e-m+fp/hard\libc-musl.a(stdout.o)
                0x0000a36c                __init_stdout

.text.strchr%346
                0x0000a380       0x14
 .text.strchr   0x0000a380       0x14 c:/program files/microchip/xc32/v4.30/bin/bin/../../lib/gcc/pic32c/8.3.1/../../../../pic32c/lib/thumb/v7e-m+fp/hard\libc-musl.a(strchr.o)
                0x0000a380                strchr

.text.NVIC_INT_Disable%347
                0x0000a394       0x12
 .text.NVIC_INT_Disable
                0x0000a394       0x12 build/default/production/_ext/1865468468/plib_nvic.o
                0x0000a394                NVIC_INT_Disable

.text.NVIC_INT_Restore%348
                0x0000a3a6       0x12
 .text.NVIC_INT_Restore
                0x0000a3a6       0x12 build/default/production/_ext/1865468468/plib_nvic.o
                0x0000a3a6                NVIC_INT_Restore

.text.vApplicationStackOverflowHook%349
                0x0000a3b8       0x12
 .text.vApplicationStackOverflowHook
                0x0000a3b8       0x12 build/default/production/_ext/1171490990/freertos_hooks.o
                0x0000a3b8                vApplicationStackOverflowHook

.text.vApplicationMallocFailedHook%350
                0x0000a3ca       0x12
 .text.vApplicationMallocFailedHook
                0x0000a3ca       0x12 build/default/production/_ext/1171490990/freertos_hooks.o
                0x0000a3ca                vApplicationMallocFailedHook

.text.DRV_SDSPI_EventHandlerSet%351
                0x0000a3dc       0x12
 .text.DRV_SDSPI_EventHandlerSet
                0x0000a3dc       0x12 build/default/production/_ext/1100529066/drv_sdspi.o
                0x0000a3dc                DRV_SDSPI_EventHandlerSet

.text.DRV_SPI_WriteTransfer%352
                0x0000a3ee       0x12
 .text.DRV_SPI_WriteTransfer
                0x0000a3ee       0x12 build/default/production/_ext/2070931557/drv_spi.o
                0x0000a3ee                DRV_SPI_WriteTransfer

.text.memcpy%353
                0x0000a400       0x12
 .text.memcpy   0x0000a400       0x12 c:/program files/microchip/xc32/v4.30/bin/bin/../../lib/gcc/pic32c/8.3.1/../../../../pic32c/lib/thumb/v7e-m+fp/hard\libc-musl.a(memcpy.o)
                0x0000a400                memcpy

.text.__dinit_clear%354
                0x0000a412       0x12
 .text.__dinit_clear
                0x0000a412       0x12 c:/program files/microchip/xc32/v4.30/bin/bin/../../lib/gcc/pic32c/8.3.1/../../../../pic32c/lib/thumb/v7e-m+fp/hard\libpic32c.a(pic32_data_init_clear.o)
                0x0000a412                __dinit_clear
                0x0000a412                __dinit_clear_needed

.text.NVMCTRL_Initialize%355
                0x0000a424       0x10
 .text.NVMCTRL_Initialize
                0x0000a424       0x10 build/default/production/_ext/1593096446/plib_nvmctrl.o
                0x0000a424                NVMCTRL_Initialize

.rodata.drvSPI0PlibAPI%356
                0x0000a434       0x10
 .rodata.drvSPI0PlibAPI
                0x0000a434       0x10 build/default/production/_ext/1171490990/initialization.o

.text.vTaskSuspendAll%357
                0x0000a444       0x10
 .text.vTaskSuspendAll
                0x0000a444       0x10 build/default/production/_ext/404212886/FreeRTOS_tasks.o
                0x0000a444                vTaskSuspendAll

.text.SERCOM3_USART_ReceiverIsReady%358
                0x0000a454       0x10
 .text.SERCOM3_USART_ReceiverIsReady
                0x0000a454       0x10 build/default/production/_ext/504274921/plib_sercom3_usart.o
                0x0000a454                SERCOM3_USART_ReceiverIsReady

.text.st_dword%359
                0x0000a464       0x10
 .text.st_dword
                0x0000a464       0x10 build/default/production/_ext/411819097/ff.o

.rodata.LfnOfs%360
                0x0000a474       0x10
 .rodata.LfnOfs
                0x0000a474       0x10 build/default/production/_ext/411819097/ff.o

.rodata.cst.9034%361
                0x0000a484       0x10
 .rodata.cst.9034
                0x0000a484       0x10 build/default/production/_ext/411819097/ff.o

.rodata.cst32.9035%362
                0x0000a494       0x10
 .rodata.cst32.9035
                0x0000a494       0x10 build/default/production/_ext/411819097/ff.o

.rodata.defopt.9036%363
                0x0000a4a4       0x10
 .rodata.defopt.9036
                0x0000a4a4       0x10 build/default/production/_ext/411819097/ff.o

.text.disk_initialize%364
                0x0000a4b4       0x10
 .text.disk_initialize
                0x0000a4b4       0x10 build/default/production/_ext/565198302/diskio.o
                0x0000a4b4                disk_initialize

.text.lSYS_FS_Tasks%365
                0x0000a4c4       0x10
 .text.lSYS_FS_Tasks
                0x0000a4c4       0x10 build/default/production/_ext/1171490990/tasks.o

.text.setbuf%366
                0x0000a4d4       0x10
 .text.setbuf   0x0000a4d4       0x10 c:/program files/microchip/xc32/v4.30/bin/bin/../../lib/gcc/pic32c/8.3.1/../../../../pic32c/lib/thumb/v7e-m+fp/hard\libc-musl.a(setbuf.o)
                0x0000a4d4                setbuf

.text.memset%367
                0x0000a4e4       0x10
 .text.memset   0x0000a4e4       0x10 c:/program files/microchip/xc32/v4.30/bin/bin/../../lib/gcc/pic32c/8.3.1/../../../../pic32c/lib/thumb/v7e-m+fp/hard\libc-musl.a(memset.o)
                0x0000a4e4                memset

.text.strlen%368
                0x0000a4f4       0x10
 .text.strlen   0x0000a4f4       0x10 c:/program files/microchip/xc32/v4.30/bin/bin/../../lib/gcc/pic32c/8.3.1/../../../../pic32c/lib/thumb/v7e-m+fp/hard\libc-musl.a(strlen.o)
                0x0000a4f4                strlen

.text.__init_stdio%369
                0x0000a504       0x10
 .text.__init_stdio
                0x0000a504       0x10 c:/program files/microchip/xc32/v4.30/bin/bin/../../lib/gcc/pic32c/8.3.1/../../../../pic32c/lib/thumb/v7e-m+fp/hard\libc-musl.a(__init_stdio.o)
                0x0000a504                __init_stdio_needed
                0x0000a504                __init_stdio

.text.main%370  0x0000a514        0xe
 .text.main     0x0000a514        0xe build/default/production/_ext/1360937237/main.o
                0x0000a514                main

.text.FATFS_eof%371
                0x0000a522        0xe
 .text.FATFS_eof
                0x0000a522        0xe build/default/production/_ext/1269487135/sys_fs_fat_interface.o
                0x0000a522                FATFS_eof

.text.uxTaskGetNumberOfTasks%372
                0x0000a530        0xc
 .text.uxTaskGetNumberOfTasks
                0x0000a530        0xc build/default/production/_ext/404212886/FreeRTOS_tasks.o
                0x0000a530                uxTaskGetNumberOfTasks

.text.vTaskMissedYield%373
                0x0000a53c        0xc
 .text.vTaskMissedYield
                0x0000a53c        0xc build/default/production/_ext/404212886/FreeRTOS_tasks.o
                0x0000a53c                vTaskMissedYield

.text.SERCOM4_I2C_TransferDirGet%374
                0x0000a548        0xc
 .text.SERCOM4_I2C_TransferDirGet
                0x0000a548        0xc build/default/production/_ext/714983638/plib_sercom4_i2c_slave.o
                0x0000a548                SERCOM4_I2C_TransferDirGet

.text.SERCOM4_I2C_LastByteAckStatusGet%375
                0x0000a554        0xc
 .text.SERCOM4_I2C_LastByteAckStatusGet
                0x0000a554        0xc build/default/production/_ext/714983638/plib_sercom4_i2c_slave.o
                0x0000a554                SERCOM4_I2C_LastByteAckStatusGet

.text.FATFS_error%376
                0x0000a560        0xc
 .text.FATFS_error
                0x0000a560        0xc build/default/production/_ext/1269487135/sys_fs_fat_interface.o
                0x0000a560                FATFS_error

.text.RTC_Timer32CallbackRegister%377
                0x0000a56c        0xc
 .text.RTC_Timer32CallbackRegister
                0x0000a56c        0xc build/default/production/_ext/60180175/plib_rtc_timer.o
                0x0000a56c                RTC_Timer32CallbackRegister

.text.SYS_FS_MEDIA_MANAGER_RegisterTransferHandler%378
                0x0000a578        0xc
 .text.SYS_FS_MEDIA_MANAGER_RegisterTransferHandler
                0x0000a578        0xc build/default/production/_ext/1269487135/sys_fs_media_manager.o
                0x0000a578                SYS_FS_MEDIA_MANAGER_RegisterTransferHandler

.text.DRV_SDSPI_SPIBlockWrite%379
                0x0000a584        0xc
 .text.DRV_SDSPI_SPIBlockWrite
                0x0000a584        0xc build/default/production/_ext/1100529066/drv_sdspi_driver_interface.o
                0x0000a584                DRV_SDSPI_SPIBlockWrite

.text.DRV_SDSPI_SPIBlockRead%380
                0x0000a590        0xc
 .text.DRV_SDSPI_SPIBlockRead
                0x0000a590        0xc build/default/production/_ext/1100529066/drv_sdspi_driver_interface.o
                0x0000a590                DRV_SDSPI_SPIBlockRead

.text.SERCOM2_SPI_CallbackRegister%381
                0x0000a59c        0xc
 .text.SERCOM2_SPI_CallbackRegister
                0x0000a59c        0xc build/default/production/_ext/17022449/plib_sercom2_spi_master.o
                0x0000a59c                SERCOM2_SPI_CallbackRegister

.text.FATFS_read%382
                0x0000a5a8        0xa
 .text.FATFS_read
                0x0000a5a8        0xa build/default/production/_ext/1269487135/sys_fs_fat_interface.o
                0x0000a5a8                FATFS_read

.text.FATFS_lseek%383
                0x0000a5b2        0xa
 .text.FATFS_lseek
                0x0000a5b2        0xa build/default/production/_ext/1269487135/sys_fs_fat_interface.o
                0x0000a5b2                FATFS_lseek

.text.FATFS_gets%384
                0x0000a5bc        0xa
 .text.FATFS_gets
                0x0000a5bc        0xa build/default/production/_ext/1269487135/sys_fs_fat_interface.o
                0x0000a5bc                FATFS_gets

.text.FATFS_write%385
                0x0000a5c6        0xa
 .text.FATFS_write
                0x0000a5c6        0xa build/default/production/_ext/1269487135/sys_fs_fat_interface.o
                0x0000a5c6                FATFS_write

.text.FATFS_truncate%386
                0x0000a5d0        0xa
 .text.FATFS_truncate
                0x0000a5d0        0xa build/default/production/_ext/1269487135/sys_fs_fat_interface.o
                0x0000a5d0                FATFS_truncate

.text.FATFS_sync%387
                0x0000a5da        0xa
 .text.FATFS_sync
                0x0000a5da        0xa build/default/production/_ext/1269487135/sys_fs_fat_interface.o
                0x0000a5da                FATFS_sync

.text.FATFS_putc%388
                0x0000a5e4        0xa
 .text.FATFS_putc
                0x0000a5e4        0xa build/default/production/_ext/1269487135/sys_fs_fat_interface.o
                0x0000a5e4                FATFS_putc

.text.FATFS_puts%389
                0x0000a5ee        0xa
 .text.FATFS_puts
                0x0000a5ee        0xa build/default/production/_ext/1269487135/sys_fs_fat_interface.o
                0x0000a5ee                FATFS_puts

.text.FATFS_printf%390
                0x0000a5f8        0xa
 .text.FATFS_printf
                0x0000a5f8        0xa build/default/production/_ext/1269487135/sys_fs_fat_interface.o
                0x0000a5f8                FATFS_printf

.text.DRV_SDSPI_SPIWrite%391
                0x0000a602        0xa
 .text.DRV_SDSPI_SPIWrite
                0x0000a602        0xa build/default/production/_ext/1100529066/drv_sdspi_driver_interface.o
                0x0000a602                DRV_SDSPI_SPIWrite

.text.DRV_SDSPI_SPIRead%392
                0x0000a60c        0xa
 .text.DRV_SDSPI_SPIRead
                0x0000a60c        0xa build/default/production/_ext/1100529066/drv_sdspi_driver_interface.o
                0x0000a60c                DRV_SDSPI_SPIRead

.text.DRV_SDSPI_SPIExclusiveAccess%393
                0x0000a616        0xa
 .text.DRV_SDSPI_SPIExclusiveAccess
                0x0000a616        0xa build/default/production/_ext/1100529066/drv_sdspi_driver_interface.o
                0x0000a616                DRV_SDSPI_SPIExclusiveAccess

.rodata.drvSPI0remapClockPhase%394
                0x0000a620        0x8
 .rodata.drvSPI0remapClockPhase
                0x0000a620        0x8 build/default/production/_ext/1171490990/initialization.o

.rodata.drvSPI0remapClockPolarity%395
                0x0000a628        0x8
 .rodata.drvSPI0remapClockPolarity
                0x0000a628        0x8 build/default/production/_ext/1171490990/initialization.o

.rodata.sysFSInit%396
                0x0000a630        0x8
 .rodata.sysFSInit
                0x0000a630        0x8 build/default/production/_ext/1171490990/initialization.o

.rodata.sysTimeInitData%397
                0x0000a638        0x8
 .rodata.sysTimeInitData
                0x0000a638        0x8 build/default/production/_ext/1171490990/initialization.o

.rodata%398     0x0000a640        0x8
 .rodata        0x0000a640        0x8 build/default/production/_ext/404212886/FreeRTOS_tasks.o

.text.FATFS_getlabel%399
                0x0000a648        0x8
 .text.FATFS_getlabel
                0x0000a648        0x8 build/default/production/_ext/1269487135/sys_fs_fat_interface.o
                0x0000a648                FATFS_getlabel

.text.FATFS_getcwd%400
                0x0000a650        0x8
 .text.FATFS_getcwd
                0x0000a650        0x8 build/default/production/_ext/1269487135/sys_fs_fat_interface.o
                0x0000a650                FATFS_getcwd

.text.FATFS_chdir%401
                0x0000a658        0x8
 .text.FATFS_chdir
                0x0000a658        0x8 build/default/production/_ext/1269487135/sys_fs_fat_interface.o
                0x0000a658                FATFS_chdir

.text.FATFS_mkdir%402
                0x0000a660        0x8
 .text.FATFS_mkdir
                0x0000a660        0x8 build/default/production/_ext/1269487135/sys_fs_fat_interface.o
                0x0000a660                FATFS_mkdir

.text.FATFS_unlink%403
                0x0000a668        0x8
 .text.FATFS_unlink
                0x0000a668        0x8 build/default/production/_ext/1269487135/sys_fs_fat_interface.o
                0x0000a668                FATFS_unlink

.text.FATFS_setlabel%404
                0x0000a670        0x8
 .text.FATFS_setlabel
                0x0000a670        0x8 build/default/production/_ext/1269487135/sys_fs_fat_interface.o
                0x0000a670                FATFS_setlabel

.text.FATFS_chmod%405
                0x0000a678        0x8
 .text.FATFS_chmod
                0x0000a678        0x8 build/default/production/_ext/1269487135/sys_fs_fat_interface.o
                0x0000a678                FATFS_chmod

.text.FATFS_utime%406
                0x0000a680        0x8
 .text.FATFS_utime
                0x0000a680        0x8 build/default/production/_ext/1269487135/sys_fs_fat_interface.o
                0x0000a680                FATFS_utime

.text.FATFS_rename%407
                0x0000a688        0x8
 .text.FATFS_rename
                0x0000a688        0x8 build/default/production/_ext/1269487135/sys_fs_fat_interface.o
                0x0000a688                FATFS_rename

.text.FATFS_fdisk%408
                0x0000a690        0x8
 .text.FATFS_fdisk
                0x0000a690        0x8 build/default/production/_ext/1269487135/sys_fs_fat_interface.o
                0x0000a690                FATFS_fdisk

.text.SYS_FS_Tasks%409
                0x0000a698        0x8
 .text.SYS_FS_Tasks
                0x0000a698        0x8 build/default/production/_ext/1269487135/sys_fs.o
                0x0000a698                SYS_FS_Tasks

.text.lAPP_Tasks%410
                0x0000a6a0        0x8
 .text.lAPP_Tasks
                0x0000a6a0        0x8 build/default/production/_ext/1171490990/tasks.o

.rodata.gPartitionTypeOffset%411
                0x0000a6a8        0x8
 .rodata.gPartitionTypeOffset
                0x0000a6a8        0x8 build/default/production/_ext/1269487135/sys_fs_media_manager.o

.text.APP_Tasks%412
                0x0000a6b0        0x8
 .text.APP_Tasks
                0x0000a6b0        0x8 build/default/production/_ext/1360937237/app.o
                0x0000a6b0                APP_Tasks

.text.__get_stdout%413
                0x0000a6b8        0x8
 .text.__get_stdout
                0x0000a6b8        0x8 c:/program files/microchip/xc32/v4.30/bin/bin/../../lib/gcc/pic32c/8.3.1/../../../../pic32c/lib/thumb/v7e-m+fp/hard\libc-musl.a(__stdout.o)
                0x0000a6b8                __get_stdout
                0x0000a6b8                __init_stdout_needed

.text.vListInitialiseItem%414
                0x0000a6c0        0x6
 .text.vListInitialiseItem
                0x0000a6c0        0x6 build/default/production/_ext/404212886/list.o
                0x0000a6c0                vListInitialiseItem

.text.RTC_Timer32FrequencyGet%415
                0x0000a6c6        0x6
 .text.RTC_Timer32FrequencyGet
                0x0000a6c6        0x6 build/default/production/_ext/60180175/plib_rtc_timer.o
                0x0000a6c6                RTC_Timer32FrequencyGet

.text.DRV_SDSPI_TimerCallback%416
                0x0000a6cc        0x6
 .text.DRV_SDSPI_TimerCallback
                0x0000a6cc        0x6 build/default/production/_ext/1100529066/drv_sdspi_driver_interface.o

.text.__fwrite_min%417
                0x0000a6d2        0x6
 .text.__fwrite_min
                0x0000a6d2        0x6 c:/program files/microchip/xc32/v4.30/bin/bin/../../lib/gcc/pic32c/8.3.1/../../../../pic32c/lib/thumb/v7e-m+fp/hard\libc-musl.a(__out.o)
                0x0000a6d2                __stdio_write_unbuffered
                0x0000a6d2                __stdio_write

.text.close%418
                0x0000a6d8        0x6
 .text.close    0x0000a6d8        0x6 c:/program files/microchip/xc32/v4.30/bin/bin/../../lib/gcc/pic32c/8.3.1/../../../../pic32c/lib/thumb/v7e-m+fp/hard\libpic32c.a(close.o)
                0x0000a6d8                close

.text.PORT_GroupRead%419
                0x00009c1c        0x4
 .text.PORT_GroupRead
                0x00009c1c        0x4 build/default/production/_ext/1865521619/plib_port.o
                0x00009c1c                PORT_GroupRead

.text.PORT_GroupSet%420
                0x0000a6de        0x4
 .text.PORT_GroupSet
                0x0000a6de        0x4 build/default/production/_ext/1865521619/plib_port.o
                0x0000a6de                PORT_GroupSet

.text.PORT_GroupClear%421
                0x0000a6e2        0x4
 .text.PORT_GroupClear
                0x0000a6e2        0x4 build/default/production/_ext/1865521619/plib_port.o
                0x0000a6e2                PORT_GroupClear

.text.FATFS_tell%422
                0x0000a6e6        0x4
 .text.FATFS_tell
                0x0000a6e6        0x4 build/default/production/_ext/1269487135/sys_fs_fat_interface.o
                0x0000a6e6                FATFS_tell

.text.FATFS_size%423
                0x0000a6ea        0x4
 .text.FATFS_size
                0x0000a6ea        0x4 build/default/production/_ext/1269487135/sys_fs_fat_interface.o
                0x0000a6ea                FATFS_size

.text.disk_status%424
                0x0000a6ee        0x4
 .text.disk_status
                0x0000a6ee        0x4 build/default/production/_ext/565198302/diskio.o
                0x0000a6ee                disk_status

.rodata%425     0x0000a6f4        0x4
 .rodata        0x0000a6f4        0x4 build/default/production/pdu_packet.o

.text.__dummy_decompress%426
                0x0000a6f8        0x4
 .text.__dummy_decompress
                0x0000a6f8        0x4 c:/program files/microchip/xc32/v4.30/bin/bin/../../lib/gcc/pic32c/8.3.1/../../../../pic32c/lib/thumb/v7e-m+fp/hard\libpic32c.a(data_init.o)
                0x0000a6f8                __dinit_decompress
                0x0000a6f8                __dinit_copy_val_data
                0x0000a6f8                __dinit_copy_emb

.text.__dummy%427
                0x0000a6fc        0x4
 .text.__dummy  0x0000a6fc        0x4 c:/program files/microchip/xc32/v4.30/bin/bin/../../lib/gcc/pic32c/8.3.1/../../../../pic32c/lib/thumb/v7e-m+fp/hard\libc-musl.a(stdin.o)
                0x0000a6fc                __stdio_seek_rw

.text%428       0x0000a700        0x4
 .text          0x0000a700        0x4 c:/program files/microchip/xc32/v4.30/bin/bin/../../lib/gcc/pic32c/8.3.1/thumb/v7e-m+fp/hard\libgcc.a(_dvmd_tls.o)
                0x0000a700                __aeabi_idiv0
                0x0000a700                __aeabi_ldiv0

.text.lseek%429
                0x0000a704        0x4
 .text.lseek    0x0000a704        0x4 c:/program files/microchip/xc32/v4.30/bin/bin/../../lib/gcc/pic32c/8.3.1/../../../../pic32c/lib/thumb/v7e-m+fp/hard\libpic32c.a(lseek.o)
                0x0000a704                lseek

.text.EVSYS_Initialize%430
                0x00003d9a        0x2
 .text.EVSYS_Initialize
                0x00003d9a        0x2 build/default/production/_ext/1986646378/plib_evsys.o
                0x00003d9a                EVSYS_Initialize

.text.NonMaskableInt_Handler%431
                0x000045c2        0x2
 .text.NonMaskableInt_Handler
                0x000045c2        0x2 build/default/production/_ext/1171490990/exceptions.o
                0x000045c2                NonMaskableInt_Handler

.text.HardFault_Handler%432
                0x00005dd2        0x2
 .text.HardFault_Handler
                0x00005dd2        0x2 build/default/production/_ext/1171490990/exceptions.o
                0x00005dd2                HardFault_Handler

.text.DebugMonitor_Handler%433
                0x00006586        0x2
 .text.DebugMonitor_Handler
                0x00006586        0x2 build/default/production/_ext/1171490990/exceptions.o
                0x00006586                DebugMonitor_Handler

.text.MemoryManagement_Handler%434
                0x00006a4a        0x2
 .text.MemoryManagement_Handler
                0x00006a4a        0x2 build/default/production/_ext/1171490990/exceptions.o
                0x00006a4a                MemoryManagement_Handler

.text.BusFault_Handler%435
                0x00007276        0x2
 .text.BusFault_Handler
                0x00007276        0x2 build/default/production/_ext/1171490990/exceptions.o
                0x00007276                BusFault_Handler

.text.UsageFault_Handler%436
                0x000077de        0x2
 .text.UsageFault_Handler
                0x000077de        0x2 build/default/production/_ext/1171490990/exceptions.o
                0x000077de                UsageFault_Handler

.text.Dummy_Handler%437
                0x00007a12        0x2
 .text.Dummy_Handler
                0x00007a12        0x2 build/default/production/_ext/1171490990/interrupts.o
                0x00007a12                EIC_EXTINT_9_Handler
                0x00007a12                TCC0_MC5_Handler
                0x00007a12                SERCOM0_2_Handler
                0x00007a12                USB_SOF_HSOF_Handler
                0x00007a12                TCC4_OTHER_Handler
                0x00007a12                TCC2_MC2_Handler
                0x00007a12                EVSYS_0_Handler
                0x00007a12                TRNG_Handler
                0x00007a12                TC2_Handler
                0x00007a12                USB_TRCPT0_Handler
                0x00007a12                DAC_OTHER_Handler
                0x00007a12                AC_Handler
                0x00007a12                DAC_EMPTY_0_Handler
                0x00007a12                DMAC_OTHER_Handler
                0x00007a12                EIC_EXTINT_5_Handler
                0x00007a12                SERCOM3_1_Handler
                0x00007a12                SERCOM3_2_Handler
                0x00007a12                EIC_EXTINT_6_Handler
                0x00007a12                TC7_Handler
                0x00007a12                TCC4_MC0_Handler
                0x00007a12                EVSYS_3_Handler
                0x00007a12                QSPI_Handler
                0x00007a12                TCC2_MC0_Handler
                0x00007a12                PDEC_OTHER_Handler
                0x00007a12                TCC3_MC0_Handler
                0x00007a12                PDEC_MC1_Handler
                0x00007a12                TCC2_MC1_Handler
                0x00007a12                OSCCTRL_XOSC1_Handler
                0x00007a12                PDEC_MC0_Handler
                0x00007a12                EIC_EXTINT_4_Handler
                0x00007a12                EIC_EXTINT_7_Handler
                0x00007a12                SERCOM0_OTHER_Handler
                0x00007a12                EVSYS_OTHER_Handler
                0x00007a12                SERCOM0_0_Handler
                0x00007a12                TCC1_MC0_Handler
                0x00007a12                SERCOM1_OTHER_Handler
                0x00007a12                TCC2_OTHER_Handler
                0x00007a12                EIC_EXTINT_11_Handler
                0x00007a12                SUPC_BODDET_Handler
                0x00007a12                EIC_EXTINT_14_Handler
                0x00007a12                OSC32KCTRL_Handler
                0x00007a12                SERCOM6_2_Handler
                0x00007a12                EVSYS_1_Handler
                0x00007a12                TC6_Handler
                0x00007a12                TCC4_MC1_Handler
                0x00007a12                DMAC_0_Handler
                0x00007a12                SUPC_OTHER_Handler
                0x00007a12                WDT_Handler
                0x00007a12                CAN0_Handler
                0x00007a12                EIC_EXTINT_15_Handler
                0x00007a12                SERCOM6_0_Handler
                0x00007a12                EIC_EXTINT_1_Handler
                0x00007a12                TCC3_MC1_Handler
                0x00007a12                SERCOM5_0_Handler
                0x00007a12                TC4_Handler
                0x00007a12                TC1_Handler
                0x00007a12                TCC1_MC1_Handler
                0x00007a12                EIC_EXTINT_0_Handler
                0x00007a12                TCC1_OTHER_Handler
                0x00007a12                PAC_Handler
                0x00007a12                TC3_Handler
                0x00007a12                Dummy_Handler
                0x00007a12                DAC_RESRDY_0_Handler
                0x00007a12                SERCOM5_1_Handler
                0x00007a12                DMAC_2_Handler
                0x00007a12                TCC0_MC4_Handler
                0x00007a12                USB_TRCPT1_Handler
                0x00007a12                SERCOM0_1_Handler
                0x00007a12                TCC0_MC3_Handler
                0x00007a12                EIC_EXTINT_12_Handler
                0x00007a12                OSCCTRL_DPLL0_Handler
                0x00007a12                SERCOM6_OTHER_Handler
                0x00007a12                SERCOM7_1_Handler
                0x00007a12                SERCOM5_OTHER_Handler
                0x00007a12                PM_Handler
                0x00007a12                OSCCTRL_DFLL_Handler
                0x00007a12                SERCOM7_0_Handler
                0x00007a12                DAC_RESRDY_1_Handler
                0x00007a12                DMAC_1_Handler
                0x00007a12                USB_OTHER_Handler
                0x00007a12                SERCOM7_2_Handler
                0x00007a12                CAN1_Handler
                0x00007a12                TCC0_OTHER_Handler
                0x00007a12                EIC_EXTINT_10_Handler
                0x00007a12                TCC1_MC3_Handler
                0x00007a12                OSCCTRL_XOSC0_Handler
                0x00007a12                SERCOM6_1_Handler
                0x00007a12                TCC0_MC0_Handler
                0x00007a12                EIC_EXTINT_2_Handler
                0x00007a12                SDHC0_Handler
                0x00007a12                SERCOM1_1_Handler
                0x00007a12                I2S_Handler
                0x00007a12                PCC_Handler
                0x00007a12                TCC3_OTHER_Handler
                0x00007a12                EIC_EXTINT_13_Handler
                0x00007a12                SERCOM1_0_Handler
                0x00007a12                PUKCC_Handler
                0x00007a12                SERCOM1_2_Handler
                0x00007a12                SERCOM3_0_Handler
                0x00007a12                TCC1_MC2_Handler
                0x00007a12                ADC1_RESRDY_Handler
                0x00007a12                NVMCTRL_1_Handler
                0x00007a12                SERCOM5_2_Handler
                0x00007a12                DAC_EMPTY_1_Handler
                0x00007a12                ADC1_OTHER_Handler
                0x00007a12                OSCCTRL_DPLL1_Handler
                0x00007a12                EIC_EXTINT_3_Handler
                0x00007a12                SERCOM3_OTHER_Handler
                0x00007a12                EIC_EXTINT_8_Handler
                0x00007a12                NVMCTRL_0_Handler
                0x00007a12                ADC0_RESRDY_Handler
                0x00007a12                ADC0_OTHER_Handler
                0x00007a12                MCLK_Handler
                0x00007a12                SERCOM7_OTHER_Handler
                0x00007a12                EVSYS_2_Handler
                0x00007a12                FREQM_Handler
                0x00007a12                TC0_Handler
                0x00007a12                TCC0_MC1_Handler
                0x00007a12                DMAC_3_Handler
                0x00007a12                RAMECC_Handler
                0x00007a12                TC5_Handler
                0x00007a12                AES_Handler
                0x00007a12                ICM_Handler
                0x00007a12                TCC0_MC2_Handler

.text.Dummy_App_Func%438
                0x00007e3a        0x2
 .text.Dummy_App_Func
                0x00007e3a        0x2 build/default/production/_ext/1171490990/startup_xc32.o
                0x00007e3a                _on_reset
                0x00007e3a                _on_bootstrap
                0x00007e3a                __xc32_on_reset
                0x00007e3a                Dummy_App_Func
                0x00007e3a                __xc32_on_bootstrap

.text.vPortFree%439
                0x00008102        0x2
 .text.vPortFree
                0x00008102        0x2 build/default/production/_ext/1665200909/heap_1.o
                0x00008102                vPortFree

.text.__dummy%440
                0x00008d42        0x2
 .text.__dummy  0x00008d42        0x2 c:/program files/microchip/xc32/v4.30/bin/bin/../../lib/gcc/pic32c/8.3.1/../../../../pic32c/lib/thumb/v7e-m+fp/hard\libc-musl.a(__libc_start_main.o)
                0x00008d42                __init_host

.text.__dummy%441
                0x00008ebe        0x2
 .text.__dummy  0x00008ebe        0x2 c:/program files/microchip/xc32/v4.30/bin/bin/../../lib/gcc/pic32c/8.3.1/../../../../pic32c/lib/thumb/v7e-m+fp/hard\libc-musl.a(__init_stdio.o)
                0x00008ebe                __init_stdin
                0x00008ebe                __init_stderr

.text.__dummy%442
                0x00009026        0x2
 .text.__dummy  0x00009026        0x2 c:/program files/microchip/xc32/v4.30/bin/bin/../../lib/gcc/pic32c/8.3.1/../../../../pic32c/lib/thumb/v7e-m+fp/hard\libc-musl.a(__stderr.o)
                0x00009026                __stdio_seek
